
robocup.elf:     Dateiformat elf32-avr


Disassembly of section .text:

00000000 <__vectors>:
       0:	0c 94 77 16 	jmp	0x2cee	; 0x2cee <__ctors_end>
       4:	0c 94 9f 16 	jmp	0x2d3e	; 0x2d3e <__bad_interrupt>
       8:	0c 94 9f 16 	jmp	0x2d3e	; 0x2d3e <__bad_interrupt>
       c:	0c 94 9f 16 	jmp	0x2d3e	; 0x2d3e <__bad_interrupt>
      10:	0c 94 9f 16 	jmp	0x2d3e	; 0x2d3e <__bad_interrupt>
      14:	0c 94 9f 16 	jmp	0x2d3e	; 0x2d3e <__bad_interrupt>
      18:	0c 94 9f 16 	jmp	0x2d3e	; 0x2d3e <__bad_interrupt>
      1c:	0c 94 9f 16 	jmp	0x2d3e	; 0x2d3e <__bad_interrupt>
      20:	0c 94 9f 16 	jmp	0x2d3e	; 0x2d3e <__bad_interrupt>
      24:	0c 94 9f 16 	jmp	0x2d3e	; 0x2d3e <__bad_interrupt>
      28:	0c 94 9f 16 	jmp	0x2d3e	; 0x2d3e <__bad_interrupt>
      2c:	0c 94 9f 16 	jmp	0x2d3e	; 0x2d3e <__bad_interrupt>
      30:	0c 94 9f 16 	jmp	0x2d3e	; 0x2d3e <__bad_interrupt>
      34:	0c 94 b0 5c 	jmp	0xb960	; 0xb960 <__vector_13>
      38:	0c 94 9f 16 	jmp	0x2d3e	; 0x2d3e <__bad_interrupt>
      3c:	0c 94 9f 16 	jmp	0x2d3e	; 0x2d3e <__bad_interrupt>
      40:	0c 94 9f 16 	jmp	0x2d3e	; 0x2d3e <__bad_interrupt>
      44:	0c 94 a5 18 	jmp	0x314a	; 0x314a <__vector_17>
      48:	0c 94 9f 16 	jmp	0x2d3e	; 0x2d3e <__bad_interrupt>
      4c:	0c 94 9f 16 	jmp	0x2d3e	; 0x2d3e <__bad_interrupt>
      50:	0c 94 9f 16 	jmp	0x2d3e	; 0x2d3e <__bad_interrupt>
      54:	0c 94 9f 16 	jmp	0x2d3e	; 0x2d3e <__bad_interrupt>
      58:	0c 94 9f 16 	jmp	0x2d3e	; 0x2d3e <__bad_interrupt>
      5c:	0c 94 9f 16 	jmp	0x2d3e	; 0x2d3e <__bad_interrupt>
      60:	0c 94 9f 16 	jmp	0x2d3e	; 0x2d3e <__bad_interrupt>
      64:	0c 94 60 5e 	jmp	0xbcc0	; 0xbcc0 <__vector_25>
      68:	0c 94 92 5e 	jmp	0xbd24	; 0xbd24 <__vector_26>
      6c:	0c 94 9f 16 	jmp	0x2d3e	; 0x2d3e <__bad_interrupt>
      70:	0c 94 9f 16 	jmp	0x2d3e	; 0x2d3e <__bad_interrupt>
      74:	0c 94 9f 16 	jmp	0x2d3e	; 0x2d3e <__bad_interrupt>
      78:	0c 94 9f 16 	jmp	0x2d3e	; 0x2d3e <__bad_interrupt>
      7c:	0c 94 9f 16 	jmp	0x2d3e	; 0x2d3e <__bad_interrupt>
      80:	0c 94 9f 16 	jmp	0x2d3e	; 0x2d3e <__bad_interrupt>
      84:	0c 94 9f 16 	jmp	0x2d3e	; 0x2d3e <__bad_interrupt>
      88:	0c 94 9f 16 	jmp	0x2d3e	; 0x2d3e <__bad_interrupt>
      8c:	0c 94 9f 16 	jmp	0x2d3e	; 0x2d3e <__bad_interrupt>
      90:	0c 94 ee 5e 	jmp	0xbddc	; 0xbddc <__vector_36>
      94:	0c 94 20 5f 	jmp	0xbe40	; 0xbe40 <__vector_37>
      98:	0c 94 9f 16 	jmp	0x2d3e	; 0x2d3e <__bad_interrupt>
      9c:	0c 94 9f 16 	jmp	0x2d3e	; 0x2d3e <__bad_interrupt>
      a0:	0c 94 9f 16 	jmp	0x2d3e	; 0x2d3e <__bad_interrupt>
      a4:	0c 94 9f 16 	jmp	0x2d3e	; 0x2d3e <__bad_interrupt>
      a8:	0c 94 9f 16 	jmp	0x2d3e	; 0x2d3e <__bad_interrupt>
      ac:	0c 94 9f 16 	jmp	0x2d3e	; 0x2d3e <__bad_interrupt>
      b0:	0c 94 9f 16 	jmp	0x2d3e	; 0x2d3e <__bad_interrupt>
      b4:	0c 94 9f 16 	jmp	0x2d3e	; 0x2d3e <__bad_interrupt>
      b8:	0c 94 9f 16 	jmp	0x2d3e	; 0x2d3e <__bad_interrupt>
      bc:	0c 94 9f 16 	jmp	0x2d3e	; 0x2d3e <__bad_interrupt>
      c0:	0c 94 9f 16 	jmp	0x2d3e	; 0x2d3e <__bad_interrupt>
      c4:	0c 94 9f 16 	jmp	0x2d3e	; 0x2d3e <__bad_interrupt>
      c8:	0c 94 9f 16 	jmp	0x2d3e	; 0x2d3e <__bad_interrupt>
      cc:	0c 94 9f 16 	jmp	0x2d3e	; 0x2d3e <__bad_interrupt>
      d0:	0c 94 9f 16 	jmp	0x2d3e	; 0x2d3e <__bad_interrupt>
      d4:	0c 94 9f 16 	jmp	0x2d3e	; 0x2d3e <__bad_interrupt>
      d8:	0c 94 9f 16 	jmp	0x2d3e	; 0x2d3e <__bad_interrupt>
      dc:	0c 94 9f 16 	jmp	0x2d3e	; 0x2d3e <__bad_interrupt>
      e0:	0c 94 9f 16 	jmp	0x2d3e	; 0x2d3e <__bad_interrupt>
      e4:	36 20       	and	r3, r6
      e6:	a1 20       	and	r10, r1
      e8:	aa 20       	and	r10, r10
      ea:	b3 20       	and	r11, r3
      ec:	bc 20       	and	r11, r12
      ee:	c5 20       	and	r12, r5
      f0:	ce 20       	and	r12, r14
      f2:	cf 21       	and	r28, r15
      f4:	d6 21       	and	r29, r6
      f6:	d9 21       	and	r29, r9
      f8:	dc 21       	and	r29, r12
      fa:	df 21       	and	r29, r15
      fc:	e2 21       	and	r30, r2
      fe:	e6 21       	and	r30, r6
     100:	eb 21       	and	r30, r11
     102:	f0 21       	and	r31, r0
     104:	f5 21       	and	r31, r5
     106:	f8 21       	and	r31, r8
     108:	fd 21       	and	r31, r13
     10a:	02 22       	and	r0, r18
     10c:	09 22       	and	r0, r25
     10e:	8d 23       	and	r24, r29
     110:	e2 22       	and	r14, r18
     112:	12 23       	and	r17, r18
     114:	14 23       	and	r17, r20
     116:	29 23       	and	r18, r25
     118:	2b 23       	and	r18, r27
     11a:	2f 23       	and	r18, r31
     11c:	4b 24       	eor	r4, r11
     11e:	4b 24       	eor	r4, r11
     120:	44 24       	eor	r4, r4
     122:	4b 24       	eor	r4, r11
     124:	53 24       	eor	r5, r3
     126:	53 24       	eor	r5, r3
     128:	4b 24       	eor	r4, r11
     12a:	1a 2c       	mov	r1, r10
     12c:	c0 2c       	mov	r12, r0
     12e:	25 2d       	mov	r18, r5
     130:	2a 2d       	mov	r18, r10
     132:	ab 2f       	mov	r26, r27
     134:	d1 2f       	mov	r29, r17
     136:	f3 2f       	mov	r31, r19
     138:	63 30       	cpi	r22, 0x03	; 3
     13a:	6f 30       	cpi	r22, 0x0F	; 15
     13c:	76 30       	cpi	r23, 0x06	; 6
     13e:	35 3d       	cpi	r19, 0xD5	; 213
     140:	0c 3e       	cpi	r16, 0xEC	; 236
     142:	f4 3e       	cpi	r31, 0xE4	; 228
     144:	57 3f       	cpi	r21, 0xF7	; 247
     146:	60 3f       	cpi	r22, 0xF0	; 240
     148:	36 41       	sbci	r19, 0x16	; 22
     14a:	36 41       	sbci	r19, 0x16	; 22
     14c:	cf 3f       	cpi	r28, 0xFF	; 255
     14e:	ef 40       	sbci	r30, 0x0F	; 15
     150:	fa 40       	sbci	r31, 0x0A	; 10
     152:	36 41       	sbci	r19, 0x16	; 22
     154:	36 41       	sbci	r19, 0x16	; 22
     156:	08 41       	sbci	r16, 0x18	; 24
     158:	0d 41       	sbci	r16, 0x1D	; 29
     15a:	21 41       	sbci	r18, 0x11	; 17
     15c:	29 41       	sbci	r18, 0x19	; 25
     15e:	39 41       	sbci	r19, 0x19	; 25
     160:	62 3e       	cpi	r22, 0xE2	; 226
     162:	f7 41       	sbci	r31, 0x17	; 23
     164:	f7 41       	sbci	r31, 0x17	; 23
     166:	64 3e       	cpi	r22, 0xE4	; 228
     168:	6a 3e       	cpi	r22, 0xEA	; 234
     16a:	f7 41       	sbci	r31, 0x17	; 23
     16c:	64 3e       	cpi	r22, 0xE4	; 228
     16e:	82 3e       	cpi	r24, 0xE2	; 226
     170:	f7 41       	sbci	r31, 0x17	; 23
     172:	a0 68       	ori	r26, 0x80	; 128
     174:	ba 68       	ori	r27, 0x8A	; 138
     176:	bd 68       	ori	r27, 0x8D	; 141
     178:	b8 68       	ori	r27, 0x88	; 136
     17a:	c5 68       	ori	r28, 0x85	; 133
     17c:	ca 68       	ori	r28, 0x8A	; 138
     17e:	d6 68       	ori	r29, 0x86	; 134

00000180 <__c.4405>:
     180:	3a 20 45 52 52 4f 52 3a 20 43 48 52 6f 62 6f 74     : ERROR: CHRobot
     190:	69 63 73 20 55 4d 36 20 49 4d 55 00                 ics UM6 IMU.

0000019c <__c.4403>:
     19c:	0a 0d 00                                            ...

0000019f <__c.4401>:
     19f:	3a 20 45 52 52 4f 52 3a 20 4d 65 6c 65 78 69 73     : ERROR: Melexis
     1af:	20 4d 4c 58 39 30 36 31 34 20 54 65 6d 70 65 72      MLX90614 Temper
     1bf:	61 74 75 72 65 20 73 65 6e 73 6f 72 73 00           ature sensors.

000001cd <__c.4399>:
     1cd:	0a 0d 00                                            ...

000001d0 <__c.4397>:
     1d0:	3a 20 45 52 52 4f 52 3a 20 52 45 53 45 54 00        : ERROR: RESET.

000001df <__c.4395>:
     1df:	0a 0d 00                                            ...

000001e2 <__c.4392>:
     1e2:	3a 20 57 41 52 4e 49 4e 47 3a 20 52 45 43 4f 56     : WARNING: RECOV
     1f2:	45 52 45 44 20 41 46 54 45 52 20 41 4e 20 55 4e     ERED AFTER AN UN
     202:	45 58 50 45 43 54 45 44 20 53 48 55 54 44 4f 57     EXPECTED SHUTDOW
     212:	4e 21 21 21 00                                      N!!!.

00000217 <__c.4390>:
     217:	0a 0d 00                                            ...

0000021a <__c.4388>:
     21a:	20 72 75 6e 6e 69 6e 67 20 74 61 73 6b 73 2e 00      running tasks..

0000022a <__c.4386>:
     22a:	3a 20 53 79 73 74 65 6d 20 69 6e 69 74 69 61 6c     : System initial
     23a:	69 7a 65 64 2c 20 00                                ized, .

00000241 <__c.4384>:
     241:	0a 0d 00                                            ...

00000244 <__c.4382>:
     244:	0a 0d 44 65 62 75 67 67 69 6e 67 20 67 72 61 64     ..Debugging grad
     254:	65 3a 20 00                                         e: .

00000258 <__c.4380>:
     258:	0a 0d 52 43 4a 20 32 30 31 34 2c 20 56 33 2e 30     ..RCJ 2014, V3.0
     268:	0a 0d 74 65 61 6d 6f 68 6e 65 6e 61 6d 65 2e 64     ..teamohnename.d
     278:	65 00                                               e.

0000027a <incr_table>:
     27a:	00 01 00 00 00 00 00 00 00 00 00 ff 00 00 00 00     ................

0000028a <u8g_font_8x13Br>:
     28a:	01 08 0d 00 fe 0a 01 7f 03 0c 20 7f fe 0b fe 0a     .......... .....
     29a:	fe 0d 00 80 32 2a 8a c0 c0 c0 c0 c0 c0 c0 00 c0     ....2*..........
     2aa:	c0 18 54 84 d8 d8 d8 d8 02 79 89 6c 6c fe fe 6c     ..T......y.ll..l
     2ba:	fe fe 6c 6c 01 7b 8b 10 7c d6 d0 f0 7c 1e 16 d6     ..ll.{..|...|...
     2ca:	7c 10 02 7a 8a e6 a6 ec 18 18 30 30 6e ca ce 02     |..z......00n...
     2da:	77 87 78 cc cc 78 ce cc 7e 38 24 84 c0 c0 c0 c0     w.x..x..~8$.....
     2ea:	11 5b 8b 18 30 60 60 c0 c0 c0 60 60 30 18 11 5b     .[..0``...``0..[
     2fa:	8b c0 60 30 30 18 18 18 30 30 60 c0 03 77 87 10     ..`00...00`..w..
     30a:	10 fe 38 38 6c 44 14 66 86 30 30 fc fc 30 30 21     ..88lD.f.00..00!
     31a:	45 85 f0 70 70 60 c0 16 61 81 fc 22 43 83 60 f0     E..pp`..a.."C.`.
     32a:	60 02 7a 8a 02 06 06 0c 18 30 60 c0 c0 80 02 7a     `.z......0`....z
     33a:	8a 38 6c c6 c6 c6 c6 c6 c6 6c 38 12 6a 8a 30 70     .8l......l8.j.0p
     34a:	f0 30 30 30 30 30 30 fc 02 7a 8a 7c c6 c6 06 0c     .000000..z.|....
     35a:	18 30 60 c0 fe 02 7a 8a fe 06 0c 18 3c 06 06 06     .0`...z.....<...
     36a:	c6 7c 02 7a 8a 0c 1c 3c 6c cc cc fe 0c 0c 0c 02     .|.z...<l.......
     37a:	7a 8a fe c0 c0 fc e6 06 06 06 c6 7c 02 7a 8a 3c     z..........|.z.<
     38a:	60 c0 c0 fc e6 c6 c6 e6 7c 02 7a 8a fe 06 06 0c     `.......|.z.....
     39a:	18 18 30 30 30 30 02 7a 8a 7c c6 c6 c6 7c c6 c6     ..0000.z.|...|..
     3aa:	c6 c6 7c 02 7a 8a 7c ce c6 c6 ce 7e 06 06 0c 78     ..|.z.|....~...x
     3ba:	22 48 88 60 f0 60 00 00 60 f0 60 21 49 89 60 f0     "H.`.`..`.`!I.`.
     3ca:	60 00 f0 70 70 60 c0 12 69 89 0c 18 30 60 c0 60     `..pp`..i...0`.`
     3da:	30 18 0c 14 64 84 fc 00 00 fc 12 69 89 c0 60 30     0...d......i..`0
     3ea:	18 0c 18 30 60 c0 02 7a 8a 7c c6 c6 06 0c 18 18     ...0`..z.|......
     3fa:	00 18 18 02 79 89 7c fe ce de d2 d2 de e0 7e 02     ....y.|.......~.
     40a:	7a 8a 38 7c c6 c6 c6 fe c6 c6 c6 c6 02 7a 8a fc     z.8|.........z..
     41a:	66 66 66 7c 66 66 66 66 fc 02 7a 8a 7c e6 c6 c0     fff|ffff..z.|...
     42a:	c0 c0 c0 c6 e6 7c 02 7a 8a fc 66 66 66 66 66 66     .....|.z..ffffff
     43a:	66 66 fc 02 7a 8a fe c0 c0 c0 f8 c0 c0 c0 c0 fe     ff..z...........
     44a:	02 7a 8a fe c0 c0 c0 f8 c0 c0 c0 c0 c0 02 7a 8a     .z............z.
     45a:	7c c6 c6 c0 c0 c0 ce c6 c6 7c 02 7a 8a c6 c6 c6     |........|.z....
     46a:	c6 fe c6 c6 c6 c6 c6 22 4a 8a f0 60 60 60 60 60     ......."J..`````
     47a:	60 60 60 f0 02 7a 8a 0e 06 06 06 06 06 06 c6 c6     ```..z..........
     48a:	7c 02 7a 8a c6 c6 cc d8 f0 f0 d8 cc c6 c6 02 7a     |.z............z
     49a:	8a c0 c0 c0 c0 c0 c0 c0 c0 c2 fe 02 7a 8a c6 c6     ............z...
     4aa:	ee fe d6 c6 c6 c6 c6 c6 02 7a 8a c6 c6 e6 e6 f6     .........z......
     4ba:	de ce ce c6 c6 02 7a 8a 7c c6 c6 c6 c6 c6 c6 c6     ......z.|.......
     4ca:	c6 7c 02 7a 8a fc c6 c6 c6 c6 fc c0 c0 c0 c0 01     .|.z............
     4da:	7b 8b 7c c6 c6 c6 c6 c6 c6 c6 de 7c 06 02 7a 8a     {.|........|..z.
     4ea:	fc c6 c6 c6 fc f8 cc cc c6 c6 02 7a 8a 7c c6 c6     ...........z.|..
     4fa:	c0 7c 06 06 c6 c6 7c 12 6a 8a fc 30 30 30 30 30     .|....|.j..00000
     50a:	30 30 30 30 02 7a 8a c6 c6 c6 c6 c6 c6 c6 c6 c6     0000.z..........
     51a:	7c 02 7a 8a c6 c6 c6 c6 44 6c 6c 38 38 10 02 7a     |.z.....Dll88..z
     52a:	8a c6 c6 c6 c6 c6 c6 d6 d6 fe 6c 02 7a 8a c6 c6     ..........l.z...
     53a:	6c 6c 38 38 6c 6c c6 c6 12 6a 8a cc cc cc 78 78     ll88ll...j....xx
     54a:	30 30 30 30 30 02 7a 8a fe 06 06 0c 18 30 60 c0     00000.z......0`.
     55a:	c0 fe 11 5b 8b f8 c0 c0 c0 c0 c0 c0 c0 c0 c0 f8     ...[............
     56a:	02 7a 8a 80 c0 c0 60 30 18 0c 06 06 02 11 5b 8b     .z....`0......[.
     57a:	f8 18 18 18 18 18 18 18 18 18 f8 08 74 84 10 38     ............t..8
     58a:	6c c6 01 71 81 fe 29 43 83 c0 60 30 02 77 87 7c     l..q..)C..`0.w.|
     59a:	06 7e c6 c6 ce 76 02 7a 8a c0 c0 c0 dc e6 c6 c6     .~...v.z........
     5aa:	c6 e6 dc 02 77 87 7c e6 c0 c0 c0 e6 7c 02 7a 8a     ....w.|.....|.z.
     5ba:	06 06 06 76 ce c6 c6 c6 ce 76 02 77 87 7c c6 c6     ...v.....v.w.|..
     5ca:	fe c0 c6 7c 02 7a 8a 3c 66 60 60 60 fc 60 60 60     ...|.z.<f```.```
     5da:	60 00 79 89 7e cc cc cc 78 f0 7c c6 7c 02 7a 8a     `.y.~...x.|.|.z.
     5ea:	c0 c0 c0 dc e6 c6 c6 c6 c6 c6 22 49 89 60 60 00     .........."I.``.
     5fa:	e0 60 60 60 60 f0 00 7b 8b 06 06 00 0e 06 06 06     .````..{........
     60a:	06 c6 c6 7c 02 7a 8a c0 c0 c0 cc d8 f0 f0 d8 cc     ...|.z..........
     61a:	c6 22 4a 8a e0 60 60 60 60 60 60 60 60 f0 02 77     ."J..````````..w
     62a:	87 6c fe d6 d6 c6 c6 c6 02 77 87 dc e6 c6 c6 c6     .l.......w......
     63a:	c6 c6 02 77 87 7c c6 c6 c6 c6 c6 7c 00 79 89 dc     ...w.|.....|.y..
     64a:	e6 c6 c6 c6 e6 dc c0 c0 00 79 89 76 ce c6 c6 c6     .........y.v....
     65a:	ce 76 06 06 02 77 87 dc e6 c0 c0 c0 c0 c0 02 77     .v...w.........w
     66a:	87 7c c6 60 38 0c c6 7c 02 7a 8a 60 60 60 60 fc     .|.`8..|.z.````.
     67a:	60 60 60 66 3c 02 77 87 c6 c6 c6 c6 c6 ce 76 02     ```f<.w.......v.
     68a:	77 87 c6 c6 c6 c6 6c 6c 38 02 77 87 c6 c6 c6 d6     w.....ll8.w.....
     69a:	d6 fe 6c 02 77 87 c6 c6 6c 38 6c c6 c6 00 79 89     ..l.w...l8l...y.
     6aa:	c6 c6 c6 c6 ce 76 06 c6 7c 02 77 87 fe 0c 18 30     .....v..|.w....0
     6ba:	60 c0 fe 11 6b 8b 3c 60 60 60 30 e0 30 60 60 60     `...k.<```0.0```
     6ca:	3c 32 2a 8a c0 c0 c0 c0 c0 c0 c0 c0 c0 c0 11 6b     <2*............k
     6da:	8b f0 18 18 18 30 1c 30 18 18 18 f0 08 73 83 72     .....0.0.....s.r
     6ea:	fe 9c ff                                            ...

000006ed <u8g_font_6x10>:
     6ed:	01 06 0a 00 fe 07 01 36 02 68 20 ff fe 08 fe 07     .......6.h .....
     6fd:	fe 0a 00 60 22 17 67 80 80 80 80 80 00 80 16 33     ...`".g........3
     70d:	63 a0 a0 a0 02 57 67 50 50 f8 50 f8 50 50 02 57     c....WgPP.P.PP.W
     71d:	67 20 70 a0 70 28 70 20 02 57 67 48 a8 50 20 50     g p.p(p .WgH.P P
     72d:	a8 90 02 57 67 40 a0 a0 40 a8 90 68 26 13 63 80     ...Wg@..@..h&.c.
     73d:	80 80 12 37 67 20 40 80 80 80 40 20 12 37 67 80     ...7g @...@ .7g.
     74d:	40 20 20 20 40 80 03 55 65 88 50 f8 50 88 03 55     @   @..Ue.P.P..U
     75d:	65 20 20 f8 20 20 11 33 63 60 40 80 05 51 61 f8     e  .  .3c`@..Qa.
     76d:	11 33 63 40 e0 40 02 57 67 08 08 10 20 40 80 80     .3c@.@.Wg... @..
     77d:	02 57 67 20 50 88 88 88 50 20 02 57 67 20 60 a0     .Wg P...P .Wg `.
     78d:	20 20 20 f8 02 57 67 70 88 08 30 40 80 f8 02 57        ..Wgp..0@...W
     79d:	67 f8 08 10 30 08 88 70 02 57 67 10 30 50 90 f8     g...0..p.Wg.0P..
     7ad:	10 10 02 57 67 f8 80 b0 c8 08 88 70 02 57 67 30     ...Wg......p.Wg0
     7bd:	40 80 b0 c8 88 70 02 57 67 f8 08 10 10 20 40 40     @....p.Wg.... @@
     7cd:	02 57 67 70 88 88 70 88 88 70 02 57 67 70 88 98     .Wgp..p..p.Wgp..
     7dd:	68 08 10 60 11 37 67 40 e0 40 00 40 e0 40 11 37     h..`.7g@.@.@.@.7
     7ed:	67 40 e0 40 00 60 40 80 12 47 67 10 20 40 80 40     g@.@.`@..Gg. @.@
     7fd:	20 10 04 53 63 f8 00 f8 12 47 67 80 40 20 10 20      ..Sc....Gg.@ . 
     80d:	40 80 02 57 67 70 88 10 20 20 00 20 02 57 67 70     @..Wgp..  . .Wgp
     81d:	88 98 a8 b0 80 70 02 57 67 20 50 88 88 f8 88 88     .....p.Wg P.....
     82d:	02 57 67 f0 48 48 70 48 48 f0 02 57 67 70 88 80     .Wg.HHpHH..Wgp..
     83d:	80 80 88 70 02 57 67 f0 48 48 48 48 48 f0 02 57     ...p.Wg.HHHHH..W
     84d:	67 f8 80 80 f0 80 80 f8 02 57 67 f8 80 80 f0 80     g........Wg.....
     85d:	80 80 02 57 67 70 88 80 80 98 88 70 02 57 67 88     ...Wgp.....p.Wg.
     86d:	88 88 f8 88 88 88 12 37 67 e0 40 40 40 40 40 e0     .......7g.@@@@@.
     87d:	02 57 67 38 10 10 10 10 90 60 02 57 67 88 90 a0     .Wg8.....`.Wg...
     88d:	c0 a0 90 88 02 57 67 80 80 80 80 80 80 f8 02 57     .....Wg........W
     89d:	67 88 88 d8 a8 88 88 88 02 57 67 88 88 c8 a8 98     g........Wg.....
     8ad:	88 88 02 57 67 70 88 88 88 88 88 70 02 57 67 f0     ...Wgp.....p.Wg.
     8bd:	88 88 f0 80 80 80 01 58 68 70 88 88 88 88 a8 70     .......Xhp.....p
     8cd:	08 02 57 67 f0 88 88 f0 a0 90 88 02 57 67 70 88     ..Wg........Wgp.
     8dd:	80 70 08 88 70 02 57 67 f8 20 20 20 20 20 20 02     .p..p.Wg.      .
     8ed:	57 67 88 88 88 88 88 88 70 02 57 67 88 88 88 50     Wg......p.Wg...P
     8fd:	50 50 20 02 57 67 88 88 88 a8 a8 d8 88 02 57 67     PP .Wg........Wg
     90d:	88 88 50 20 50 88 88 02 57 67 88 88 50 20 20 20     ..P P...Wg..P   
     91d:	20 02 57 67 f8 08 10 20 40 80 f8 12 37 67 e0 80      .Wg... @...7g..
     92d:	80 80 80 80 e0 02 57 67 80 80 40 20 10 08 08 12     ......Wg..@ ....
     93d:	37 67 e0 20 20 20 20 20 e0 06 53 63 20 50 88 01     7g.     ..Sc P..
     94d:	51 61 f8 28 22 62 80 40 02 55 65 70 08 78 88 78     Qa.("b.@.Uep.x.x
     95d:	02 57 67 80 80 b0 c8 88 c8 b0 02 55 65 70 88 80     .Wg........Uep..
     96d:	88 70 02 57 67 08 08 68 98 88 98 68 02 55 65 70     .p.Wg..h...h.Uep
     97d:	88 f8 80 70 02 57 67 30 48 40 f0 40 40 40 00 57     ...p.Wg0H@.@@@.W
     98d:	67 78 88 88 78 08 88 70 02 57 67 80 80 b0 c8 88     gx..x..p.Wg.....
     99d:	88 88 12 37 67 40 00 c0 40 40 40 e0 10 49 69 10     ...7g@..@@@..Ii.
     9ad:	00 30 10 10 10 90 90 60 02 57 67 80 80 88 90 e0     .0.....`.Wg.....
     9bd:	90 88 12 37 67 c0 40 40 40 40 40 e0 02 55 65 d0     ...7g.@@@@@..Ue.
     9cd:	a8 a8 a8 88 02 55 65 b0 c8 88 88 88 02 55 65 70     .....Ue......Uep
     9dd:	88 88 88 70 00 57 67 b0 c8 88 c8 b0 80 80 00 57     ...p.Wg........W
     9ed:	67 68 98 88 98 68 08 08 02 55 65 b0 c8 80 80 80     gh...h...Ue.....
     9fd:	02 55 65 70 80 70 08 f0 02 57 67 40 40 f0 40 40     .Uep.p...Wg@@.@@
     a0d:	48 30 02 55 65 88 88 88 98 68 02 55 65 88 88 50     H0.Ue....h.Ue..P
     a1d:	50 20 02 55 65 88 88 a8 a8 50 02 55 65 88 50 20     P .Ue....P.Ue.P 
     a2d:	50 88 00 57 67 88 88 98 68 08 88 70 02 55 65 f8     P..Wg...h..p.Ue.
     a3d:	10 20 40 f8 12 47 67 30 40 20 c0 20 40 30 22 17     . @..Gg0@ . @0".
     a4d:	67 80 80 80 80 80 80 80 12 47 67 c0 20 40 30 40     g........Gg. @0@
     a5d:	20 c0 06 53 63 48 a8 90 ff ff ff ff ff ff ff ff      ..ScH..........
     a6d:	ff ff ff ff ff ff ff ff ff ff ff ff ff ff ff ff     ................
     a7d:	ff ff ff ff ff ff ff ff ff 0a 00 60 22 17 67 80     ...........`".g.
     a8d:	00 80 80 80 80 80 01 57 67 20 78 a0 a0 a0 78 20     .......Wg x...x 
     a9d:	02 57 67 30 48 40 e0 40 48 b0 02 55 65 88 70 50     .Wg0H@.@H..Ue.pP
     aad:	70 88 01 58 68 88 88 50 20 f8 20 20 20 22 17 67     p..Xh..P .   ".g
     abd:	80 80 80 00 80 80 80 01 58 68 70 80 e0 90 48 38     ........Xhp...H8
     acd:	08 70 19 31 61 a0 02 57 67 70 88 a8 c8 a8 88 70     .p.1a..Wgp.....p
     add:	13 46 66 70 90 b0 50 00 f0 02 65 65 24 48 90 48     .Ffp..P...ee$H.H
     aed:	24 14 42 62 f0 10 15 41 61 f0 02 57 67 70 88 e8     $.Bb...Aa..Wgp..
     afd:	c8 c8 88 70 09 51 61 f8 16 33 63 40 a0 40 02 56     ...p.Qa..3c@.@.V
     b0d:	66 20 20 f8 20 20 f8 15 45 65 60 90 20 40 f0 15     f  .  ..Ee`. @..
     b1d:	45 65 e0 10 60 10 e0 28 22 62 40 80 01 56 66 88     Ee..`..("b@..Vf.
     b2d:	88 88 c8 b0 80 02 57 67 78 e8 e8 68 28 28 28 25     ......Wgx..h(((%
     b3d:	11 61 80 20 22 62 40 80 15 35 65 40 c0 40 40 e0     .a. "b@..5e@.@@.
     b4d:	13 46 66 60 90 90 60 00 f0 02 65 65 90 48 24 48     .Ff`..`...ee.H$H
     b5d:	90 01 69 69 40 c0 40 40 e4 0c 14 3c 04 01 69 69     ..ii@.@@...<..ii
     b6d:	40 c0 40 40 e8 14 04 08 1c 01 59 69 c0 20 40 20     @.@@......Yi. @ 
     b7d:	c8 18 28 78 08 02 57 67 20 00 20 20 40 88 70 02     ..(x..Wg .  @.p.
     b8d:	58 68 40 20 70 88 88 f8 88 88 02 58 68 10 20 70     Xh@ p......Xh. p
     b9d:	88 88 f8 88 88 02 58 68 20 50 70 88 88 f8 88 88     ......Xh Pp.....
     bad:	02 58 68 48 b0 70 88 88 f8 88 88 02 58 68 50 00     .XhH.p......XhP.
     bbd:	70 88 88 f8 88 88 02 58 68 20 50 70 88 88 f8 88     p......Xh Pp....
     bcd:	88 02 67 67 3c 50 90 9c f0 90 9c 00 59 69 70 88     ..gg<P......Yip.
     bdd:	80 80 80 88 70 20 40 02 58 68 40 f8 80 80 f0 80     ....p @.Xh@.....
     bed:	80 f8 02 58 68 10 f8 80 80 f0 80 80 f8 02 58 68     ...Xh.........Xh
     bfd:	20 f8 80 80 f0 80 80 f8 02 58 68 50 f8 80 80 f0      ........XhP....
     c0d:	80 80 f8 12 38 68 80 40 e0 40 40 40 40 e0 12 38     ....8h.@.@@@@..8
     c1d:	68 20 40 e0 40 40 40 40 e0 12 38 68 40 a0 e0 40     h @.@@@@..8h@..@
     c2d:	40 40 40 e0 12 38 68 a0 00 e0 40 40 40 40 e0 02     @@@..8h...@@@@..
     c3d:	57 67 f0 48 48 e8 48 48 f0 02 58 68 28 50 88 c8     Wg.HH.HH..Xh(P..
     c4d:	a8 98 88 88 02 58 68 40 20 70 88 88 88 88 70 02     .....Xh@ p....p.
     c5d:	58 68 10 20 70 88 88 88 88 70 02 58 68 20 50 70     Xh. p....p.Xh Pp
     c6d:	88 88 88 88 70 02 58 68 28 50 70 88 88 88 88 70     ....p.Xh(Pp....p
     c7d:	02 58 68 50 00 70 88 88 88 88 70 02 55 65 88 50     .XhP.p....p.Ue.P
     c8d:	20 50 88 02 57 67 70 98 98 a8 c8 c8 70 02 58 68      P..Wgp.....p.Xh
     c9d:	40 20 88 88 88 88 88 70 02 58 68 10 20 88 88 88     @ .....p.Xh. ...
     cad:	88 88 70 02 58 68 20 50 00 88 88 88 88 70 02 58     ..p.Xh P.....p.X
     cbd:	68 50 00 88 88 88 88 88 70 02 58 68 10 20 88 88     hP......p.Xh. ..
     ccd:	50 20 20 20 02 57 67 80 f0 88 f0 80 80 80 02 57     P   .Wg........W
     cdd:	67 70 88 90 a0 90 88 b0 02 58 68 40 20 00 70 08     gp.......Xh@ .p.
     ced:	78 88 78 02 58 68 10 20 00 70 08 78 88 78 02 58     x.x.Xh. .p.x.x.X
     cfd:	68 20 50 00 70 08 78 88 78 02 58 68 28 50 00 70     h P.p.x.x.Xh(P.p
     d0d:	08 78 88 78 02 57 67 50 00 70 08 78 88 78 02 58     .x.x.WgP.p.x.x.X
     d1d:	68 20 50 20 70 08 78 88 78 02 65 65 78 14 7c 90     h P p.x.x.eex.|.
     d2d:	7c 00 57 67 70 88 80 88 70 20 40 02 58 68 40 20     |.Wgp...p @.Xh@ 
     d3d:	00 70 88 f8 80 70 02 58 68 10 20 00 70 88 f8 80     .p...p.Xh. .p...
     d4d:	70 02 58 68 20 50 00 70 88 f8 80 70 02 57 67 50     p.Xh P.p...p.WgP
     d5d:	00 70 88 f8 80 70 12 38 68 80 40 00 c0 40 40 40     .p...p.8h.@..@@@
     d6d:	e0 12 38 68 40 80 00 c0 40 40 40 e0 12 38 68 40     ..8h@...@@@..8h@
     d7d:	a0 00 c0 40 40 40 e0 12 37 67 a0 00 c0 40 40 40     ...@@@..7g...@@@
     d8d:	e0 02 57 67 c0 30 70 88 88 88 70 02 58 68 28 50     ..Wg.0p...p.Xh(P
     d9d:	00 b0 c8 88 88 88 02 58 68 40 20 00 70 88 88 88     .......Xh@ .p...
     dad:	70 02 58 68 10 20 00 70 88 88 88 70 02 58 68 20     p.Xh. .p...p.Xh 
     dbd:	50 00 70 88 88 88 70 02 58 68 28 50 00 70 88 88     P.p...p.Xh(P.p..
     dcd:	88 70 02 57 67 50 00 70 88 88 88 70 03 55 65 20     .p.WgP.p...p.Ue 
     ddd:	00 f8 00 20 02 55 65 78 98 a8 c8 f0 02 58 68 40     ... .Uex.....Xh@
     ded:	20 00 88 88 88 98 68 02 58 68 10 20 00 88 88 88      .....h.Xh. ....
     dfd:	98 68 02 58 68 20 50 00 88 88 88 98 68 02 57 67     .h.Xh P.....h.Wg
     e0d:	50 00 88 88 88 98 68 00 59 69 10 20 88 88 98 68     P.....h.Yi. ...h
     e1d:	08 88 70 00 58 68 80 f0 88 88 88 f0 80 80 00 59     ..p.Xh.........Y
     e2d:	69 50 00 88 88 98 68 08 88 70                       iP....h..p

00000e37 <u8g_font_5x7>:
     e37:	01 05 07 00 ff 06 01 15 02 27 20 ff ff 06 ff 06     .........' .....
     e47:	ff 08 00 50 22 16 56 80 80 80 80 00 80 15 33 53     ...P".V.......3S
     e57:	a0 a0 a0 02 55 55 50 f8 50 f8 50 02 55 55 70 a0     ....UUP.P.P.UUp.
     e67:	70 28 70 02 46 56 80 90 20 40 90 10 02 45 55 40     p(p.FV.. @...EU@
     e77:	a0 40 a0 50 25 13 53 80 80 80 12 26 56 40 80 80     .@.P%.S....&V@..
     e87:	80 80 40 12 26 56 80 40 40 40 40 80 12 35 55 a0     ..@.&V.@@@@..5U.
     e97:	40 e0 40 a0 02 55 55 20 20 f8 20 20 11 33 53 60     @.@..UU  .  .3S`
     ea7:	40 80 04 41 51 f0 12 22 52 c0 c0 03 44 54 10 20     @..AQ.."R...DT. 
     eb7:	40 80 12 36 56 40 a0 a0 a0 a0 40 12 36 56 40 c0     @..6V@....@.6V@.
     ec7:	40 40 40 e0 02 46 56 60 90 10 20 40 f0 02 46 56     @@@..FV`.. @..FV
     ed7:	f0 10 60 10 90 60 02 46 56 20 60 a0 f0 20 20 02     ..`..`.FV `..  .
     ee7:	46 56 f0 80 e0 10 90 60 02 46 56 60 80 e0 90 90     FV.....`.FV`....
     ef7:	60 02 46 56 f0 10 20 20 40 40 02 46 56 60 90 60     `.FV..  @@.FV`.`
     f07:	90 90 60 02 46 56 60 90 90 70 10 60 12 25 55 c0     ..`.FV`..p.`.%U.
     f17:	c0 00 c0 c0 01 36 56 60 60 00 60 40 80 12 35 55     .....6V``.`@..5U
     f27:	20 40 80 40 20 03 43 53 f0 00 f0 12 35 55 80 40      @.@ .CS....5U.@
     f37:	20 40 80 12 36 56 40 a0 20 40 00 40 02 46 56 60      @..6V@. @.@.FV`
     f47:	90 b0 b0 80 60 02 46 56 60 90 90 f0 90 90 02 46     ....`.FV`......F
     f57:	56 e0 90 e0 90 90 e0 02 46 56 60 90 80 80 90 60     V.......FV`....`
     f67:	02 46 56 e0 90 90 90 90 e0 02 46 56 f0 80 e0 80     .FV.......FV....
     f77:	80 f0 02 46 56 f0 80 e0 80 80 80 02 46 56 60 90     ...FV.......FV`.
     f87:	80 b0 90 70 02 46 56 90 90 f0 90 90 90 12 36 56     ...p.FV.......6V
     f97:	e0 40 40 40 40 e0 02 46 56 10 10 10 10 90 60 02     .@@@@..FV.....`.
     fa7:	46 56 90 a0 c0 c0 a0 90 02 46 56 80 80 80 80 80     FV.......FV.....
     fb7:	f0 02 46 56 90 f0 f0 90 90 90 02 46 56 90 d0 d0     ..FV.......FV...
     fc7:	b0 b0 90 02 46 56 60 90 90 90 90 60 02 46 56 e0     ....FV`....`.FV.
     fd7:	90 90 e0 80 80 01 47 57 60 90 90 90 d0 60 10 02     ......GW`....`..
     fe7:	46 56 e0 90 90 e0 a0 90 02 46 56 60 90 40 20 90     FV.......FV`.@ .
     ff7:	60 12 36 56 e0 40 40 40 40 40 02 46 56 90 90 90     `.6V.@@@@@.FV...
    1007:	90 90 60 02 46 56 90 90 90 90 60 60 02 46 56 90     ..`.FV....``.FV.
    1017:	90 90 f0 f0 90 02 46 56 90 90 60 60 90 90 12 36     ......FV..``...6
    1027:	56 a0 a0 a0 40 40 40 02 46 56 f0 10 20 40 80 f0     V...@@@.FV.. @..
    1037:	12 36 56 e0 80 80 80 80 e0 03 44 54 80 40 20 10     .6V.......DT.@ .
    1047:	12 36 56 e0 20 20 20 20 e0 16 32 52 40 a0 02 41     .6V.    ..2R@..A
    1057:	51 f0 16 22 52 80 40 02 44 54 70 90 b0 50 02 46     Q.."R.@.DTp..P.F
    1067:	56 80 80 e0 90 90 e0 02 34 54 60 80 80 60 02 46     V.......4T`..`.F
    1077:	56 10 10 70 90 90 70 02 44 54 60 b0 c0 60 02 46     V..p..p.DT`..`.F
    1087:	56 20 50 40 e0 40 40 01 45 55 70 90 60 80 70 02     V P@.@@.EUp.`.p.
    1097:	46 56 80 80 e0 90 90 90 12 36 56 40 00 c0 40 40     FV.......6V@..@@
    10a7:	e0 11 37 57 20 00 20 20 20 a0 40 02 46 56 80 80     ..7W .   .@.FV..
    10b7:	a0 c0 a0 90 12 36 56 c0 40 40 40 40 e0 02 44 54     .....6V.@@@@..DT
    10c7:	a0 f0 90 90 02 44 54 e0 90 90 90 02 44 54 60 90     .....DT.....DT`.
    10d7:	90 60 01 45 55 e0 90 90 e0 80 01 45 55 70 90 90     .`.EU......EUp..
    10e7:	70 10 02 44 54 e0 90 80 80 02 44 54 70 c0 30 e0     p..DT.....DTp.0.
    10f7:	02 46 56 40 40 e0 40 40 30 02 44 54 90 90 90 70     .FV@@.@@0.DT...p
    1107:	12 34 54 a0 a0 a0 40 02 44 54 90 90 f0 f0 02 44     .4T...@.DT.....D
    1117:	54 90 60 60 90 01 45 55 90 90 50 20 40 02 44 54     T.``..EU..P @.DT
    1127:	f0 20 40 f0 12 36 56 20 40 c0 40 40 20 22 16 56     . @..6V @.@@ ".V
    1137:	80 80 80 80 80 80 12 36 56 80 40 60 40 40 80 06     .......6V.@`@@..
    1147:	42 52 50 a0 ff ff ff ff ff ff ff ff ff ff ff ff     BRP.............
    1157:	ff ff ff ff ff ff ff ff ff ff ff ff ff ff ff ff     ................
    1167:	ff ff ff ff ff 08 00 50 22 16 56 80 00 80 80 80     .......P".V.....
    1177:	80 01 46 56 20 70 a0 a0 70 20 02 45 55 30 40 e0     ..FV p..p .EU0@.
    1187:	40 b0 02 55 55 88 70 50 70 88 12 36 56 a0 a0 40     @..UU.pPp..6V..@
    1197:	e0 40 40 22 15 55 80 80 00 80 80 11 37 57 60 80     .@@".U......7W`.
    11a7:	c0 a0 60 20 c0 17 31 51 a0 01 57 57 70 88 a8 c8     ..` ..1Q..WWp...
    11b7:	a8 88 70 05 33 53 60 a0 60 03 53 53 48 90 48 03     ..p.3S`.`.SSH.H.
    11c7:	42 52 f0 10 14 31 51 e0 01 57 57 70 88 e8 c8 c8     BR...1Q..WWp....
    11d7:	88 70 07 41 51 f0 15 33 53 40 a0 40 02 56 56 20     .p.AQ..3S@.@.VV 
    11e7:	20 f8 20 20 f8 14 24 54 c0 40 80 c0 14 24 54 c0      .  ..$T.@...$T.
    11f7:	c0 40 c0 16 22 52 40 80 01 45 55 90 90 90 e0 80     .@.."R@..EU.....
    1207:	02 46 56 70 d0 d0 50 50 50 14 22 52 c0 c0 11 22     .FVp..PPP."R..."
    1217:	52 40 80 14 34 54 40 c0 40 e0 05 33 53 40 a0 40     R@..4T@.@..3S@.@
    1227:	03 53 53 90 48 90 01 47 57 80 80 80 90 30 70 10     .SS.H..GW....0p.
    1237:	01 47 57 80 80 80 b0 10 20 30 01 47 57 c0 c0 40     .GW..... 0.GW..@
    1247:	d0 30 70 10 12 36 56 40 00 40 80 a0 40 02 46 56     .0p..6V@.@..@.FV
    1257:	60 90 90 f0 90 90 02 46 56 60 90 90 f0 90 90 02     `......FV`......
    1267:	46 56 60 90 90 f0 90 90 02 46 56 60 90 90 f0 90     FV`......FV`....
    1277:	90 02 46 56 90 60 90 f0 90 90 02 46 56 60 60 90     ..FV.`.....FV``.
    1287:	f0 90 90 02 46 56 70 a0 b0 e0 a0 b0 01 47 57 60     ....FVp......GW`
    1297:	90 80 80 90 60 40 02 46 56 f0 80 e0 80 80 f0 02     ....`@.FV.......
    12a7:	46 56 f0 80 e0 80 80 f0 02 46 56 f0 80 e0 80 80     FV.......FV.....
    12b7:	f0 02 46 56 f0 80 e0 80 80 f0 12 36 56 e0 40 40     ..FV.......6V.@@
    12c7:	40 40 e0 12 36 56 e0 40 40 40 40 e0 12 36 56 e0     @@..6V.@@@@..6V.
    12d7:	40 40 40 40 e0 12 36 56 e0 40 40 40 40 e0 02 46     @@@@..6V.@@@@..F
    12e7:	56 e0 50 d0 50 50 e0 02 46 56 b0 90 d0 b0 b0 90     V.P.PP..FV......
    12f7:	02 46 56 60 90 90 90 90 60 02 46 56 60 90 90 90     .FV`....`.FV`...
    1307:	90 60 02 46 56 60 90 90 90 90 60 02 46 56 60 90     .`.FV`....`.FV`.
    1317:	90 90 90 60 02 46 56 90 60 90 90 90 60 02 44 54     ...`.FV.`...`.DT
    1327:	90 60 60 90 02 46 56 70 b0 b0 d0 d0 e0 02 46 56     .``..FVp......FV
    1337:	90 90 90 90 90 60 02 46 56 90 90 90 90 90 60 02     .....`.FV.....`.
    1347:	46 56 90 90 90 90 90 60 02 46 56 90 00 90 90 90     FV.....`.FV.....
    1357:	60 12 36 56 a0 a0 a0 40 40 40 02 46 56 80 e0 90     `.6V...@@@.FV...
    1367:	e0 80 80 02 46 56 60 90 a0 90 90 a0 02 46 56 40     ....FV`......FV@
    1377:	20 70 90 b0 50 02 46 56 20 40 70 90 b0 50 02 46      p..P.FV @p..P.F
    1387:	56 20 50 70 90 b0 50 02 46 56 50 a0 70 90 b0 50     V Pp..P.FVP.p..P
    1397:	02 46 56 50 00 70 90 b0 50 02 46 56 60 60 70 90     .FVP.p..P.FV``p.
    13a7:	b0 50 02 44 54 70 b0 a0 70 11 35 55 60 80 80 60     .P.DTp..p.5U`..`
    13b7:	40 02 46 56 40 20 60 b0 c0 60 02 46 56 20 40 60     @.FV@ `..`.FV @`
    13c7:	b0 c0 60 02 46 56 40 a0 60 b0 c0 60 02 46 56 a0     ..`.FV@.`..`.FV.
    13d7:	00 60 b0 c0 60 12 36 56 80 40 c0 40 40 e0 12 36     .`..`.6V.@.@@..6
    13e7:	56 40 80 c0 40 40 e0 12 36 56 40 a0 c0 40 40 e0     V@..@@..6V@..@@.
    13f7:	12 36 56 a0 00 c0 40 40 e0 02 46 56 40 30 60 90     .6V...@@..FV@0`.
    1407:	90 60 02 46 56 50 a0 e0 90 90 90 02 46 56 40 20     .`.FVP......FV@ 
    1417:	60 90 90 60 02 46 56 20 40 60 90 90 60 02 46 56     `..`.FV @`..`.FV
    1427:	60 00 60 90 90 60 02 46 56 50 a0 60 90 90 60 02     `.`..`.FVP.`..`.
    1437:	46 56 50 00 60 90 90 60 02 45 55 60 00 f0 00 60     FVP.`..`.EU`...`
    1447:	02 44 54 70 b0 d0 e0 02 46 56 40 20 90 90 90 70     .DTp....FV@ ...p
    1457:	02 46 56 20 40 90 90 90 70 02 46 56 60 00 90 90     .FV @...p.FV`...
    1467:	90 70 02 46 56 50 00 90 90 90 70 01 47 57 20 40     .p.FVP....p.GW @
    1477:	90 90 50 20 40 01 46 56 80 e0 90 90 e0 80 01 47     ..P @.FV.......G
    1487:	57 50 00 90 90 50 20 40                             WP...P @

0000148f <u8g_font_4x6>:
    148f:	01 04 06 00 ff 05 01 03 01 fa 20 ff ff 05 ff 05     .......... .....
    149f:	ff 07 00 40 12 15 45 80 80 80 00 80 05 32 42 a0     ...@..E......2B.
    14af:	a0 02 45 45 a0 f0 a0 f0 a0 01 36 46 40 e0 c0 20     ..EE......6F@.. 
    14bf:	e0 40 02 35 45 80 20 40 80 20 02 45 45 40 a0 40     .@.5E. @. .EE@.@
    14cf:	a0 50 15 12 42 80 80 11 26 46 40 80 80 80 80 40     .P..B...&F@....@
    14df:	01 26 46 80 40 40 40 40 80 02 35 45 a0 40 e0 40     .&F.@@@@..5E.@.@
    14ef:	a0 02 35 45 40 40 e0 40 40 01 22 42 40 80 04 31     ..5E@@.@@."B@..1
    14ff:	41 e0 12 11 41 80 02 35 45 20 20 40 80 80 02 35     A...A..5E  @...5
    150f:	45 40 a0 e0 a0 40 02 35 45 40 c0 40 40 e0 02 35     E@...@.5E@.@@..5
    151f:	45 40 a0 20 40 e0 02 35 45 e0 20 40 20 c0 02 35     E@. @..5E. @ ..5
    152f:	45 a0 a0 e0 20 20 02 35 45 e0 80 c0 20 c0 02 35     E...  .5E... ..5
    153f:	45 60 80 c0 a0 40 02 35 45 e0 20 40 80 80 02 35     E`...@.5E. @...5
    154f:	45 60 a0 40 a0 c0 02 35 45 40 a0 60 20 c0 12 14     E`.@...5E@.` ...
    155f:	44 80 00 00 80 01 25 45 40 00 00 40 80 02 35 45     D.....%E@..@..5E
    156f:	20 40 80 40 20 03 33 43 e0 00 e0 02 35 45 80 40      @.@ .3C....5E.@
    157f:	20 40 80 02 35 45 c0 20 40 00 40 02 35 45 60 a0      @..5E. @.@.5E`.
    158f:	a0 80 60 02 35 45 40 a0 e0 a0 a0 02 35 45 c0 a0     ..`.5E@.....5E..
    159f:	c0 a0 c0 02 35 45 40 a0 80 a0 40 02 35 45 c0 a0     ....5E@...@.5E..
    15af:	a0 a0 c0 02 35 45 e0 80 c0 80 e0 02 35 45 e0 80     ....5E......5E..
    15bf:	c0 80 80 02 35 45 60 80 a0 a0 60 02 35 45 a0 a0     ....5E`...`.5E..
    15cf:	e0 a0 a0 02 35 45 e0 40 40 40 e0 02 35 45 20 20     ....5E.@@@..5E  
    15df:	20 a0 40 02 35 45 a0 a0 c0 a0 a0 02 35 45 80 80      .@.5E......5E..
    15ef:	80 80 e0 02 35 45 a0 e0 e0 a0 a0 02 35 45 20 a0     ....5E......5E .
    15ff:	e0 a0 80 02 35 45 40 a0 a0 a0 40 02 35 45 c0 a0     ....5E@...@.5E..
    160f:	c0 80 80 01 36 46 40 a0 a0 a0 40 20 02 35 45 c0     ....6F@...@ .5E.
    161f:	a0 c0 a0 a0 02 35 45 60 80 40 20 c0 02 35 45 e0     .....5E`.@ ..5E.
    162f:	40 40 40 40 02 35 45 a0 a0 a0 a0 e0 02 35 45 a0     @@@@.5E......5E.
    163f:	a0 a0 e0 40 02 35 45 a0 a0 e0 e0 a0 02 35 45 a0     ...@.5E......5E.
    164f:	a0 40 a0 a0 02 35 45 a0 a0 40 40 40 02 35 45 e0     .@...5E..@@@.5E.
    165f:	20 40 80 e0 12 25 45 c0 80 80 80 c0 02 35 45 80      @...%E......5E.
    166f:	80 40 20 20 02 25 45 c0 40 40 40 c0 05 32 42 40     .@  .%E.@@@..2B@
    167f:	a0 01 31 41 e0 15 22 42 80 40 02 34 44 60 a0 a0     ..1A.."B.@.4D`..
    168f:	60 02 35 45 80 c0 a0 a0 c0 02 34 44 60 80 80 60     `.5E......4D`..`
    169f:	02 35 45 20 60 a0 a0 60 02 34 44 40 a0 c0 60 02     .5E `..`.4D@..`.
    16af:	35 45 20 40 e0 40 40 01 35 45 60 a0 60 20 c0 02     5E @.@@.5E`.` ..
    16bf:	35 45 80 c0 a0 a0 a0 02 35 45 40 00 c0 40 e0 01     5E......5E@..@..
    16cf:	36 46 20 00 20 20 20 c0 02 35 45 80 a0 c0 a0 a0     6F .   ..5E.....
    16df:	02 35 45 c0 40 40 40 e0 02 34 44 a0 e0 a0 a0 02     .5E.@@@..4D.....
    16ef:	34 44 c0 a0 a0 a0 02 34 44 40 a0 a0 40 01 35 45     4D.....4D@..@.5E
    16ff:	c0 a0 c0 80 80 01 35 45 60 a0 a0 60 20 02 34 44     ......5E`..` .4D
    170f:	a0 c0 80 80 02 34 44 60 c0 20 c0 02 35 45 40 e0     .....4D`. ..5E@.
    171f:	40 40 20 02 34 44 a0 a0 a0 60 02 34 44 a0 a0 a0     @@ .4D...`.4D...
    172f:	40 02 34 44 a0 a0 e0 a0 02 34 44 a0 40 40 a0 01     @.4D.....4D.@@..
    173f:	35 45 a0 a0 60 20 c0 02 34 44 e0 20 40 e0 01 36     5E..` ..4D. @..6
    174f:	46 20 40 c0 40 40 20 12 15 45 80 80 80 80 80 01     F @.@@ ..E......
    175f:	36 46 80 40 60 40 40 80 05 42 42 50 a0 ff ff ff     6F.@`@@..BBP....
    176f:	ff ff ff ff ff ff ff ff ff ff ff ff ff ff ff ff     ................
    177f:	ff ff ff ff ff ff ff ff ff ff ff ff ff ff 07 00     ................
    178f:	40 12 15 45 80 00 80 80 80 02 35 45 40 e0 80 e0     @..E......5E@...
    179f:	40 02 35 45 20 40 60 40 a0 02 44 44 90 60 60 90     @.5E @`@..DD.``.
    17af:	02 35 45 a0 40 e0 40 40 12 15 45 80 80 00 80 80     .5E.@.@@..E.....
    17bf:	01 36 46 60 c0 a0 60 20 c0 06 31 41 a0 01 46 46     .6F`..` ..1A..FF
    17cf:	60 90 d0 d0 90 60 02 35 45 60 a0 60 00 e0 03 43     `....`.5E`.`...C
    17df:	43 50 a0 50 03 32 42 e0 20 04 31 41 e0 03 44 44     CP.P.2B. .1A..DD
    17ef:	60 f0 d0 60 06 31 41 e0 04 33 43 40 a0 40 02 35     `..`.1A..3C@.@.5
    17ff:	45 40 e0 40 00 e0 03 24 44 c0 40 80 c0 02 25 45     E@.@...$D.@...%E
    180f:	c0 40 80 40 80 15 22 42 40 80 01 35 45 a0 a0 a0     .@.@.."B@..5E...
    181f:	c0 80 02 45 45 70 d0 d0 50 50 14 11 41 80 12 22     ...EEp..PP..A.."
    182f:	42 40 80 03 24 44 40 c0 40 40 02 35 45 40 a0 40     B@..$D@.@@.5E@.@
    183f:	00 e0 03 43 43 a0 50 a0 01 46 46 80 80 80 50 70     ...CC.P..FF...Pp
    184f:	10 01 46 46 80 80 b0 10 20 30 01 46 46 c0 40 80     ..FF.... 0.FF.@.
    185f:	50 b0 10 02 35 45 40 00 40 80 60 02 35 45 80 40     P...5E@.@.`.5E.@
    186f:	a0 e0 a0 02 35 45 20 40 a0 e0 a0 02 35 45 c0 40     ....5E @....5E.@
    187f:	a0 e0 a0 02 35 45 60 c0 a0 e0 a0 02 35 45 a0 40     ....5E`.....5E.@
    188f:	a0 e0 a0 02 35 45 40 40 a0 e0 a0 02 45 45 70 a0     ....5E@@....EEp.
    189f:	f0 a0 b0 01 36 46 40 a0 80 a0 40 80 02 35 45 80     ....6F@...@..5E.
    18af:	e0 c0 80 e0 02 35 45 20 e0 c0 80 e0 02 35 45 60     .....5E .....5E`
    18bf:	e0 c0 80 e0 02 35 45 a0 e0 c0 80 e0 02 35 45 80     .....5E......5E.
    18cf:	e0 40 40 e0 02 35 45 20 e0 40 40 e0 02 35 45 40     .@@..5E .@@..5E@
    18df:	e0 40 40 e0 02 35 45 a0 40 40 40 e0 02 45 45 e0     .@@..5E.@@@..EE.
    18ef:	50 d0 50 e0 02 45 45 50 a0 e0 e0 a0 02 35 45 80     P.P..EEP.....5E.
    18ff:	40 a0 a0 40 02 35 45 20 40 a0 a0 40 02 35 45 40     @..@.5E @..@.5E@
    190f:	40 a0 a0 40 02 45 45 70 e0 a0 a0 40 02 35 45 a0     @..@.EEp...@.5E.
    191f:	40 a0 a0 40 03 33 43 a0 40 a0 02 35 45 60 a0 e0     @..@.3C.@..5E`..
    192f:	a0 c0 02 35 45 80 40 a0 a0 e0 02 35 45 20 40 a0     ...5E.@....5E @.
    193f:	a0 e0 02 35 45 40 00 a0 a0 e0 02 35 45 a0 00 a0     ...5E@.....5E...
    194f:	a0 e0 02 35 45 20 00 a0 40 40 02 35 45 80 c0 a0     ...5E ..@@.5E...
    195f:	c0 80 01 36 46 40 a0 c0 a0 e0 80 02 35 45 80 40     ...6F@......5E.@
    196f:	60 a0 60 02 35 45 20 40 60 a0 60 02 35 45 60 00     `.`.5E @`.`.5E`.
    197f:	60 a0 60 02 45 45 50 a0 60 a0 60 02 35 45 a0 00     `.`.EEP.`.`.5E..
    198f:	60 a0 60 02 35 45 40 00 60 a0 60 02 44 44 70 b0     `.`.5E@.`.`.DDp.
    199f:	a0 70 01 35 45 40 a0 80 60 40 02 35 45 80 40 a0     .p.5E@..`@.5E.@.
    19af:	c0 60 02 35 45 20 40 a0 c0 60 02 35 45 c0 40 a0     .`.5E @..`.5E.@.
    19bf:	c0 60 02 35 45 a0 40 a0 c0 60 02 35 45 80 40 40     .`.5E.@..`.5E.@@
    19cf:	40 e0 02 35 45 20 c0 40 40 e0 02 35 45 40 a0 40     @..5E .@@..5E@.@
    19df:	40 e0 02 35 45 a0 00 c0 40 e0 02 35 45 a0 40 60     @..5E...@..5E.@`
    19ef:	a0 40 02 45 45 50 a0 c0 a0 a0 02 35 45 80 40 40     .@.EEP.....5E.@@
    19ff:	a0 40 02 35 45 20 40 40 a0 40 02 35 45 40 00 40     .@.5E @@.@.5E@.@
    1a0f:	a0 40 02 35 45 e0 00 40 a0 40 02 35 45 a0 00 40     .@.5E..@.@.5E..@
    1a1f:	a0 40 02 35 45 40 00 e0 00 40 02 34 44 60 a0 a0     .@.5E@...@.4D`..
    1a2f:	c0 02 35 45 80 40 a0 a0 60 02 35 45 20 40 a0 a0     ..5E.@..`.5E @..
    1a3f:	60 02 35 45 40 00 a0 a0 60 02 35 45 a0 00 a0 a0     `.5E@...`.5E....
    1a4f:	60 01 36 46 20 40 a0 e0 20 c0 01 36 46 80 80 c0     `.6F @.. ..6F...
    1a5f:	a0 c0 80 01 36 46 a0 00 a0 e0 20 c0                 ....6F.... .

00001a6b <__c.4245>:
    1a6b:	3a 20 45 52 52 4f 52 3a 3a 46 41 54 41 4c 3a 57     : ERROR::FATAL:W
    1a7b:	45 4e 54 5f 49 4e 54 4f 3a 73 77 69 74 63 68 5b     ENT_INTO:switch[
    1a8b:	64 69 73 70 2e 30 36 5d 3a 44 45 46 41 55 4c 54     disp.06]:DEFAULT
    1a9b:	5f 43 41 53 45 00                                   _CASE.

00001aa1 <__c.4243>:
    1aa1:	0a 0d 00                                            ...

00001aa4 <__c.4232>:
    1aa4:	3a 20 45 52 52 4f 52 3a 3a 46 41 54 41 4c 3a 57     : ERROR::FATAL:W
    1ab4:	45 4e 54 5f 49 4e 54 4f 3a 73 77 69 74 63 68 5b     ENT_INTO:switch[
    1ac4:	64 69 73 70 2e 30 35 5d 3a 44 45 46 41 55 4c 54     disp.05]:DEFAULT
    1ad4:	5f 43 41 53 45 00                                   _CASE.

00001ada <__c.4230>:
    1ada:	0a 0d 00                                            ...

00001add <__c.4221>:
    1add:	3a 20 45 52 52 4f 52 3a 3a 46 41 54 41 4c 3a 57     : ERROR::FATAL:W
    1aed:	45 4e 54 5f 49 4e 54 4f 3a 73 77 69 74 63 68 5b     ENT_INTO:switch[
    1afd:	64 69 73 70 2e 30 34 5d 3a 44 45 46 41 55 4c 54     disp.04]:DEFAULT
    1b0d:	5f 43 41 53 45 00                                   _CASE.

00001b13 <__c.4219>:
    1b13:	0a 0d 00                                            ...

00001b16 <__c.4205>:
    1b16:	3a 20 45 52 52 4f 52 3a 3a 46 41 54 41 4c 3a 57     : ERROR::FATAL:W
    1b26:	45 4e 54 5f 49 4e 54 4f 3a 73 77 69 74 63 68 5b     ENT_INTO:switch[
    1b36:	64 69 73 70 2e 30 33 5d 3a 44 45 46 41 55 4c 54     disp.03]:DEFAULT
    1b46:	5f 43 41 53 45 00                                   _CASE.

00001b4c <__c.4203>:
    1b4c:	0a 0d 00                                            ...

00001b4f <__c.4162>:
    1b4f:	3a 20 45 52 52 4f 52 3a 3a 46 41 54 41 4c 3a 57     : ERROR::FATAL:W
    1b5f:	45 4e 54 5f 49 4e 54 4f 3a 73 77 69 74 63 68 5b     ENT_INTO:switch[
    1b6f:	64 69 73 70 2e 30 32 5d 3a 44 45 46 41 55 4c 54     disp.02]:DEFAULT
    1b7f:	5f 43 41 53 45 00                                   _CASE.

00001b85 <__c.4160>:
    1b85:	0a 0d 00                                            ...

00001b88 <__c.4108>:
    1b88:	3a 20 45 52 52 4f 52 3a 3a 46 41 54 41 4c 3a 57     : ERROR::FATAL:W
    1b98:	45 4e 54 5f 49 4e 54 4f 3a 73 77 69 74 63 68 5b     ENT_INTO:switch[
    1ba8:	64 69 73 70 2e 30 31 5d 3a 44 45 46 41 55 4c 54     disp.01]:DEFAULT
    1bb8:	5f 43 41 53 45 00                                   _CASE.

00001bbe <__c.4106>:
    1bbe:	0a 0d 00                                            ...

00001bc1 <logo_rcj>:
    1bc1:	02 00 78 00 00 00 00 00 00 00 00 00 00 02 00 fc     ..x.............
	...
    1bd9:	00 00 07 00 bf 00 00 00 00 00 00 00 00 00 00 0f     ................
    1be9:	00 be 00 00 00 00 00 00 00 00 00 00 de 01 ff 00     ................
	...
    1c01:	00 de 01 fb 00 00 00 00 00 00 00 00 00 00 fc 01     ................
    1c11:	7e 00 00 00 00 00 00 00 00 00 00 f8 00 f8 00 00     ~...............
	...
    1c29:	f8 07 e0 00 00 00 00 00 00 00 00 00 00 fe 3d c0     ..............=.
    1c39:	01 00 00 00 00 00 00 00 00 00 9f 1f c0 03 00 00     ................
    1c49:	00 00 00 00 00 00 00 02 0e 80 07 00 00 00 00 00     ................
    1c59:	00 00 00 00 00 20 9e 03 00 00 00 00 00 00 c0 44     ..... .........D
    1c69:	04 00 60 bf 01 00 00 00 00 00 00 80 6a 06 00 80     ..`.........j...
    1c79:	71 0c 00 00 00 00 00 00 c0 4a 07 00 80 78 0e f0     q........J...x..
    1c89:	07 80 01 00 f8 43 4a 04 00 c0 6c 14 38 0f 80 01     .....CJ...l.8...
    1c99:	00 fc c1 44 04 00 c0 de 2c 18 0c 80 01 00 0e 00     ...D....,.......
    1ca9:	00 00 00 80 af 68 18 0c 80 03 00 06 00 00 00 00     .....h..........
    1cb9:	00 cb 58 38 8e 8f 1f 3e 06 18 e3 03 00 00 7c 70     ..X8...>......|p
    1cc9:	f8 cf 99 33 67 06 1c 73 07 00 00 7c 6c f8 c7 b8     ...3g..s...|l...
    1cd9:	73 e3 06 1c 33 06 00 00 e8 4f 18 c7 b8 71 e3 06     s...3....O...q..
    1ce9:	1c 3b 06 00 00 fc 3a 18 ce b8 71 e3 0e 1c 3b 06     .;....:...q...;.
    1cf9:	00 00 ff 2e 18 ce b9 73 67 1c 18 3b 06 00 80 cf     .......sg..;....
    1d09:	15 18 9c 1f 3f 7e f8 fb fb 03 00 e0 80 0f 10 18     ....?~..........
    1d19:	0f 1e 3c f0 f1 f9 01 00 b0 81 06 00 00 00 00 00     ..<.............
    1d29:	00 00 38 00 00 78 81 05 00 00 00 00 00 00 00 30     ..8..x.........0
    1d39:	00 00 d8 81 07 20 00 e0 00 00 00 0e 00 05 00 b4     ..... ..........
    1d49:	01 07 20 30 b0 01 00 00 1a 00 04 00 ec 8d 03 20     .. 0........... 
    1d59:	01 b1 6d 23 00 de 60 05 00 78 ff 02 a0 ba f2 2e     ..m#..`..x......
    1d69:	51 07 52 4e 05 00 58 dc 02 b0 aa 32 c6 56 05 56     Q.RN..X....2.V.V
    1d79:	2a 05 00 38 88 02 18 19 31 6c 23 43 5e 66 05 00     *..8....1l#C^f..
    1d89:	3c 18 03 00 00 00 00 00 00 00 00 00 00 1c 10 03     <...............
	...
    1da1:	00 00 1c f0 01 00 00 00 00 00 00 00 00 00 00 14     ................
    1db1:	c8 01 00 00 00 00 00 00 00 00 00 00 28 6c 00 00     ............(l..
	...
    1dc9:	00 28 38 00 00 00 00 00 00 00 00 00 00 00 30 18     .(8...........0.
	...

00001de3 <logo_rios>:
    1de3:	ff ff 3f 00 f8 0f 00 f8 ff ff 00 00 fe ff 03 ff     ..?.............
    1df3:	ff ff 01 f8 0f 00 ff ff ff 03 80 ff ff 0f ff ff     ................
    1e03:	ff 07 f8 0f c0 ff ff ff 0f e0 ff ff 0f ff ff ff     ................
    1e13:	0f f8 0f e0 ff 87 ff 1f f0 7f e0 0f ff 01 fc 0f     ................
    1e23:	f8 0f f8 3f 00 f0 7f f0 3f 00 00 ff 01 fc 0f f8     ...?....?.......
    1e33:	0f fc 1f 00 e0 ff f0 3f 00 00 ff 01 fc 0f f8 0f     .......?........
    1e43:	fc 0f 00 c0 ff f0 ff 01 00 ff 81 ff 07 f8 0f fc     ................
    1e53:	0f 00 c0 ff e0 ff 3f 00 ff ff ff 01 f8 0f fc 0f     ......?.........
    1e63:	00 c0 ff 80 ff ff 03 ff ff 3f 00 f8 0f fc 0f 00     .........?......
    1e73:	c0 ff 00 fe ff 0f ff ff 7f 00 f8 0f fc 0f 00 c0     ................
    1e83:	ff 00 f0 ff 1f ff 81 ff 01 f8 0f fc 0f 00 c0 ff     ................
    1e93:	00 00 f8 3f ff 01 ff 03 f8 0f fc 0f 00 e0 7f 00     ...?............
    1ea3:	00 f0 3f ff 01 fe 07 f8 0f f8 3f 00 f0 3f 00 00     ..?.......?..?..
    1eb3:	f0 3f ff 01 fc 0f f8 0f f0 ff 00 fe 1f f8 01 f8     .?..............
    1ec3:	1f ff 01 fc 1f f8 0f c0 ff ff ff 0f f8 ff ff 0f     ................
    1ed3:	ff 01 f8 3f f8 0f 80 ff ff ff 03 f0 ff ff 03 ff     ...?............
    1ee3:	01 f0 3f f8 0f 00 fc ff 3f 00 c0 ff ff 00 ff 01     ..?.....?.......
    1ef3:	e0 3f e0 07 00 f8 ff 3f 00 c0 ff ff 00 ff 01 f0     .?.....?........
    1f03:	3f f8 0f 00 ff ff ff 01 f0 ff ff 03 ff 01 f8 1f     ?...............
    1f13:	f8 0f c0 ff ff ff 07 f8 ff ff 0f ff 01 fc 0f f8     ................
    1f23:	0f f0 ff 87 ff 1f f8 0f fc 1f ff 01 fe 07 f8 0f     ................
    1f33:	f8 1f 00 f0 3d 30 00 f0 3f ff 01 ff 03 f8 0f b8     ....=0..?.......
    1f43:	0f 00 e0 4f 00 00 f0 3f db 81 ff 01 68 0e 54 0c     ...O...?....h.T.
    1f53:	00 80 77 00 00 f8 3f 1f bc 79 00 00 08 2c 01 00     ..w...?..y...,..
    1f63:	00 41 00 00 f0 1d 06 10 12 00 00 0c 04 00 00 00     .A..............
    1f73:	00 00 80 81 01 27 00 16 00 18 00 04 04 00 00 00     .....'..........
    1f83:	00 00 00 00 00 00 00 02 00 00 00 00 00 00 00 40     ...............@
    1f93:	00 00 00                                            ...

00001f96 <warning>:
    1f96:	00 00 80 ff 1f 00 00 00 00 00 f0 ff ff 00 00 00     ................
    1fa6:	00 00 fe ff ff 07 00 00 00 80 ff ff ff 1f 00 00     ................
    1fb6:	00 c0 ff ff ff 3f 00 00 00 f0 ff ff ff ff 00 00     .....?..........
    1fc6:	00 f8 ff ff ff ff 01 00 00 fc ff ff ff ff 03 00     ................
    1fd6:	00 fe ff ff ff ff 07 00 00 ff ff ff ff ff 0f 00     ................
    1fe6:	80 ff ff 03 fc ff 1f 00 c0 ff ff 03 fc ff 3f 00     ..............?.
    1ff6:	e0 ff ff 03 fc ff 7f 00 e0 ff ff 03 fc ff 7f 00     ................
    2006:	f0 ff ff 03 fc ff ff 00 f8 ff ff 03 fc ff ff 00     ................
    2016:	f8 ff ff 03 fc ff ff 01 f8 ff ff 03 fc ff ff 01     ................
    2026:	fc ff ff 03 fc ff ff 03 fc ff ff 03 fc ff ff 03     ................
    2036:	fe ff ff 03 fc ff ff 03 fe ff ff 03 fc ff ff 07     ................
    2046:	fe ff ff 03 fc ff ff 07 fe ff ff 03 fc ff ff 07     ................
    2056:	ff ff ff 07 fe ff ff 0f ff ff ff 07 fe ff ff 0f     ................
    2066:	ff ff ff 07 fe ff ff 0f ff ff ff 07 fe ff ff 0f     ................
    2076:	ff ff ff 07 fe ff ff 0f ff ff ff 07 fe ff ff 0f     ................
    2086:	ff ff ff 07 fe ff ff 0f ff ff ff 07 fe ff ff 0f     ................
    2096:	ff ff ff 07 fe ff ff 0f ff ff ff 07 fe ff ff 0f     ................
    20a6:	ff ff ff 07 fe ff ff 0f ff ff ff 0f ff ff ff 0f     ................
    20b6:	fe ff ff 0f ff ff ff 07 fe ff ff 0f ff ff ff 07     ................
    20c6:	fe ff ff 0f ff ff ff 07 fc ff ff ff ff ff ff 03     ................
    20d6:	fc ff ff ff ff ff ff 03 fc ff ff ff ff ff ff 03     ................
    20e6:	f8 ff ff 03 fc ff ff 01 f8 ff ff 03 fc ff ff 01     ................
    20f6:	f0 ff ff 03 fc ff ff 00 f0 ff ff 03 fc ff ff 00     ................
    2106:	e0 ff ff 03 fc ff 7f 00 e0 ff ff 03 fc ff 3f 00     ..............?.
    2116:	c0 ff ff 03 fc ff 3f 00 80 ff ff 03 fc ff 1f 00     ......?.........
    2126:	00 ff ff ff ff ff 0f 00 00 fe ff ff ff ff 07 00     ................
    2136:	00 fc ff ff ff ff 03 00 00 f8 ff ff ff ff 01 00     ................
    2146:	00 f0 ff ff ff ff 00 00 00 c0 ff ff ff 3f 00 00     .............?..
    2156:	00 80 ff ff ff 0f 00 00 00 00 fe ff ff 07 00 00     ................
    2166:	00 00 f0 ff ff 00 00 00 00 00 80 ff 1f 00 00 00     ................

00002176 <logo_a4>:
    2176:	fc ff ff 07 06 00 00 0c 03 00 00 18 01 00 00 10     ................
    2186:	01 00 00 10 01 00 00 10 01 00 00 10 01 00 00 10     ................
    2196:	01 00 00 10 01 00 00 10 01 00 00 10 01 fe 0f 10     ................
    21a6:	01 02 08 10 01 02 08 10 01 02 08 10 01 02 08 10     ................
    21b6:	01 02 08 10 01 fe 0f 10 01 00 00 10 01 00 00 10     ................
    21c6:	01 00 00 10 01 00 00 10 01 00 00 10 01 00 00 10     ................
    21d6:	01 00 00 10 01 00 00 10 03 00 00 18 06 00 00 0c     ................
    21e6:	fc ff ff 07                                         ....

000021ea <logo_a3>:
    21ea:	fc ff ff 7f 00 06 00 00 c0 00 03 00 00 80 01 01     ................
    21fa:	00 00 00 01 01 00 00 00 01 01 00 00 00 01 01 00     ................
    220a:	00 00 01 01 00 00 00 01 01 00 00 00 01 01 00 00     ................
    221a:	00 01 01 00 00 00 01 01 00 00 00 01 01 fc 7f 00     ................
    222a:	01 01 04 40 00 01 01 04 40 00 01 01 04 40 00 01     ...@....@....@..
    223a:	01 04 40 00 01 01 04 40 00 01 01 04 40 00 01 01     ..@....@....@...
    224a:	04 40 00 01 01 fc 7f 00 01 01 00 00 00 01 01 00     .@..............
    225a:	00 00 01 01 00 00 00 01 01 00 00 00 01 01 00 00     ................
    226a:	00 01 01 00 00 00 01 01 00 00 00 01 01 00 00 00     ................
    227a:	01 01 00 00 00 01 03 00 00 80 01 06 00 00 c0 00     ................
    228a:	fc ff ff 7f 00                                      .....

0000228f <logo_a2>:
    228f:	fc ff ff ff 07 06 00 00 00 0c 03 00 00 00 18 01     ................
    229f:	00 00 00 10 01 00 00 00 10 01 00 00 00 10 01 00     ................
    22af:	00 00 10 01 00 00 00 10 01 00 00 00 10 01 00 00     ................
    22bf:	00 10 01 00 00 00 10 01 00 00 00 10 01 00 00 00     ................
    22cf:	10 01 00 00 00 10 01 f8 ff 03 10 01 08 00 02 10     ................
    22df:	01 08 00 02 10 01 08 00 02 10 01 08 00 02 10 01     ................
    22ef:	08 00 02 10 01 08 00 02 10 01 08 00 02 10 01 f8     ................
    22ff:	ff 03 10 01 00 00 00 10 01 00 00 00 10 01 00 00     ................
    230f:	00 10 01 00 00 00 10 01 00 00 00 10 01 00 00 00     ................
    231f:	10 01 00 00 00 10 01 00 00 00 10 01 00 00 00 10     ................
    232f:	01 00 00 00 10 01 00 00 00 10 03 00 00 00 18 06     ................
    233f:	00 00 00 0c fc ff ff ff 07                          .........

00002348 <logo_a1>:
    2348:	fc ff ff ff 7f 00 06 00 00 00 c0 00 03 00 00 00     ................
    2358:	80 01 01 00 00 00 00 01 01 00 00 00 00 01 01 00     ................
    2368:	00 00 00 01 01 00 00 00 00 01 01 00 00 00 00 01     ................
    2378:	01 00 00 00 00 01 01 00 00 00 00 01 01 00 00 00     ................
    2388:	00 01 01 00 00 00 00 01 01 00 00 00 00 01 01 00     ................
    2398:	00 00 00 01 01 00 00 00 00 01 01 f0 ff 1f 00 01     ................
    23a8:	01 10 00 10 00 01 01 10 00 10 00 01 01 10 00 10     ................
    23b8:	00 01 01 10 00 10 00 01 01 10 00 10 00 01 01 10     ................
    23c8:	00 10 00 01 01 10 00 10 00 01 01 10 00 10 00 01     ................
    23d8:	01 f0 ff 1f 00 01 01 00 00 00 00 01 01 00 00 00     ................
    23e8:	00 01 01 00 00 00 00 01 01 00 00 00 00 01 01 00     ................
    23f8:	00 00 00 01 01 00 00 00 00 01 01 00 00 00 00 01     ................
    2408:	01 00 00 00 00 01 01 00 00 00 00 01 01 00 00 00     ................
    2418:	00 01 01 00 00 00 00 01 01 00 00 00 00 01 01 00     ................
    2428:	00 00 00 01 03 00 00 00 80 01 06 00 00 00 c0 00     ................
    2438:	fc ff ff ff 7f 00                                   ......

0000243e <logo>:
	...
    246a:	80 ff ff 3f 00 00 00 00 00 00 00 00 00 00 00 00     ...?............
    247a:	c0 00 00 60 00 00 00 00 00 00 00 00 00 00 00 00     ...`............
    248a:	40 00 00 40 00 00 00 00 00 00 00 00 00 00 00 00     @..@............
    249a:	40 00 00 40 00 00 00 00 00 00 00 00 00 00 00 00     @..@............
    24aa:	40 00 00 40 00 00 00 00 00 00 00 00 00 00 00 00     @..@............
    24ba:	40 00 00 40 00 00 00 00 00 00 00 00 00 00 00 00     @..@............
    24ca:	40 00 00 40 00 00 00 00 00 00 00 00 00 00 00 00     @..@............
    24da:	40 00 00 40 00 00 00 00 00 00 00 00 00 00 00 00     @..@............
    24ea:	40 00 00 40 00 00 00 00 00 00 00 00 00 00 00 00     @..@............
    24fa:	40 e0 ff 40 00 00 00 00 00 00 00 00 00 00 00 00     @..@............
    250a:	40 20 80 40 00 00 00 00 00 00 00 00 00 00 00 00     @ .@............
    251a:	40 20 80 40 00 00 00 00 00 00 00 00 00 00 00 00     @ .@............
    252a:	40 20 80 40 00 00 00 00 00 00 00 00 00 00 00 00     @ .@............
    253a:	00 20 80 40 00 00 00 00 80 00 00 00 00 00 00 00     . .@............
    254a:	40 20 80 40 04 00 00 00 80 00 00 00 00 00 00 00     @ .@............
    255a:	40 e0 ff 40 04 00 00 00 80 00 00 00 00 00 00 00     @..@............
    256a:	40 00 00 40 0e c3 d1 0c 8e 46 07 a3 c3 69 0c 06     @..@.....F...i..
    257a:	5c 0c 00 40 84 24 b2 13 91 c9 88 64 24 da 13 09     \..@.$.....d$...
    258a:	62 12 00 40 44 08 12 a1 a0 50 50 28 08 0a a1 10     b..@D....PP(....
    259a:	41 21 00 40 c4 8f 13 a1 a0 50 d0 2f 88 0b a1 1f     A!.@.....P./....
    25aa:	41 3f 00 40 44 40 12 a1 a0 50 50 20 48 0a a1 00     A?.@D@...PP H...
    25ba:	41 01 00 40 44 20 12 a1 a0 50 50 20 28 0a a1 00     A..@D ...PP (...
    25ca:	41 01 00 40 54 28 13 21 91 50 50 28 28 0b a1 10     A..@T(.!.PP((...
    25da:	61 21 00 60 88 e7 12 21 8e 50 90 27 e8 0a 21 4f     a!.`...!.P.'..!O
    25ea:	5e 9e ff 3f 00 00 00 00 00 00 00 00 00 00 00 00     ^..?............
	...

0000260e <__c.4455>:
    260e:	3a 20 52 65 73 65 74 3a 3a 73 6d 5f 64 6f 74 3a     : Reset::sm_dot:
    261e:	64 6f 74 5f 74 69 6c 65 5f 6d 69 64 64 6c 65 3a     dot_tile_middle:
    262e:	73 6d 5f 72 6f 74 61 74 65 3a 73 6d 5f 74 75 72     sm_rotate:sm_tur
    263e:	6e 3a 72 61 6d 70 5f 72 65 61 64 79 3a 73 6d 5f     n:ramp_ready:sm_
    264e:	64 5f 6c 72 3a 73 6d 5f 64 64 69 73 74 00           d_lr:sm_ddist.

0000265c <__c.4453>:
    265c:	0a 0d 00                                            ...

0000265f <__c.4448>:
    265f:	3a 20 46 41 54 41 4c 20 45 52 52 4f 52 3a 20 57     : FATAL ERROR: W
    266f:	45 4e 54 20 49 4e 54 4f 20 64 72 69 76 65 5f 64     ENT INTO drive_d
    267f:	69 73 74 28 29 3a 73 6d 5f 64 64 69 73 74 20 44     ist():sm_ddist D
    268f:	45 46 41 55 4c 54 20 43 41 53 45 21 00              EFAULT CASE!.

0000269c <__c.4446>:
    269c:	0a 0d 00                                            ...

0000269f <__c.4443>:
    269f:	3a 20 64 72 69 76 65 5f 64 69 73 74 28 29 3a 20     : drive_dist(): 
    26af:	64 6f 6e 65 2e 20 00                                done. .

000026b6 <__c.4441>:
    26b6:	0a 0d 00                                            ...

000026b9 <__c.4436>:
    26b9:	3a 20 64 72 69 76 65 5f 64 69 73 74 28 29 00        : drive_dist().

000026c8 <__c.4434>:
    26c8:	0a 0d 00                                            ...

000026cb <__c.4311>:
    26cb:	3a 20 46 41 54 41 4c 20 45 52 52 4f 52 3a 20 57     : FATAL ERROR: W
    26db:	45 4e 54 20 49 4e 54 4f 20 64 72 69 76 65 5f 74     ENT INTO drive_t
    26eb:	75 72 6e 28 29 3a 73 6d 5f 74 75 72 6e 20 44 45     urn():sm_turn DE
    26fb:	46 41 55 4c 54 20 43 41 53 45 21 00                 FAULT CASE!.

00002707 <__c.4309>:
    2707:	0a 0d 00                                            ...

0000270a <__c.4306>:
    270a:	3a 20 64 72 69 76 65 5f 74 75 72 6e 28 29 3a 20     : drive_turn(): 
    271a:	64 6f 6e 65 2e 20 00                                done. .

00002721 <__c.4304>:
    2721:	0a 0d 00                                            ...

00002724 <__c.4300>:
    2724:	3a 20 64 72 69 76 65 5f 74 75 72 6e 28 29 3a 20     : drive_turn(): 
    2734:	61 6c 69 67 6e 65 64 00                             aligned.

0000273c <__c.4298>:
    273c:	0a 0d 00                                            ...

0000273f <__c.4294>:
    273f:	3a 20 64 72 69 76 65 5f 74 75 72 6e 28 29 00        : drive_turn().

0000274e <__c.4292>:
    274e:	0a 0d 00                                            ...

00002751 <__c.4256>:
    2751:	3a 20 46 41 54 41 4c 20 45 52 52 4f 52 3a 20 57     : FATAL ERROR: W
    2761:	45 4e 54 20 49 4e 54 4f 20 64 72 69 76 65 5f 72     ENT INTO drive_r
    2771:	6f 74 61 74 65 28 29 3a 73 6d 5f 72 6f 74 61 74     otate():sm_rotat
    2781:	65 20 44 45 46 41 55 4c 54 20 43 41 53 45 21 00     e DEFAULT CASE!.

00002791 <__c.4254>:
    2791:	0a 0d 00                                            ...

00002794 <__c.4251>:
    2794:	3a 20 64 72 69 76 65 5f 6f 6e 65 54 69 6c 65 28     : drive_oneTile(
    27a4:	29 3a 20 64 6f 6e 65 2e 20 00                       ): done. .

000027ae <__c.4249>:
    27ae:	0a 0d 00                                            ...

000027b1 <__c.4244>:
    27b1:	3a 20 64 72 69 76 65 5f 72 6f 74 61 74 65 28 29     : drive_rotate()
    27c1:	3a 3a 70 73 69 5f 73 74 61 72 74 3a 20 00           ::psi_start: .

000027cf <__c.4242>:
    27cf:	0a 0d 00                                            ...

000027d2 <__c.4223>:
    27d2:	3a 20 45 52 52 4f 52 3a 3a 46 41 54 41 4c 3a 20     : ERROR::FATAL: 
    27e2:	77 65 6e 74 20 69 6e 74 6f 20 64 72 69 76 65 5f     went into drive_
    27f2:	6f 6e 65 54 69 6c 65 28 29 3a 73 6d 5f 64 6f 74     oneTile():sm_dot
    2802:	3a 44 45 46 41 55 4c 54 5f 43 41 53 45 00           :DEFAULT_CASE.

00002810 <__c.4221>:
    2810:	0a 0d 00                                            ...

00002813 <__c.4218>:
    2813:	3a 20 64 72 69 76 65 5f 6f 6e 65 54 69 6c 65 28     : drive_oneTile(
    2823:	29 3a 64 6f 6e 65 00                                ):done.

0000282a <__c.4216>:
    282a:	0a 0d 00                                            ...

0000282d <__c.4204>:
    282d:	3a 20 64 72 69 76 65 5f 6f 6e 65 54 69 6c 65 28     : drive_oneTile(
    283d:	29 3a 3a 65 6e 63 5f 6c 72 5f 73 74 61 72 74 3a     )::enc_lr_start:
	...

0000284e <__c.4202>:
    284e:	0a 0d 00                                            ...

00002851 <__c.4200>:
    2851:	3a 20 64 72 69 76 65 5f 6f 6e 65 54 69 6c 65 28     : drive_oneTile(
    2861:	29 3a 3a 64 6f 6e 74 73 74 61 72 74 3a 64 69 73     )::dontstart:dis
    2871:	74 00                                               t.

00002873 <__c.4198>:
    2873:	0a 0d 00                                            ...

00002876 <mlx90614_i2c_addresses>:
    2876:	b8 b4                                               ..

00002878 <__c.4551>:
    2878:	3a 20 45 52 52 4f 52 3a 3a 46 41 54 41 4c 3a 57     : ERROR::FATAL:W
    2888:	45 4e 54 5f 49 4e 54 4f 3a 73 77 69 74 63 68 5b     ENT_INTO:switch[
    2898:	6d 61 7a 65 2e 31 38 5d 3a 44 45 46 41 55 4c 54     maze.18]:DEFAULT
    28a8:	5f 43 41 53 45 00                                   _CASE.

000028ae <__c.4549>:
    28ae:	0a 0d 00                                            ...

000028b1 <__c.4540>:
    28b1:	3a 20 45 52 52 4f 52 3a 3a 46 41 54 41 4c 3a 57     : ERROR::FATAL:W
    28c1:	45 4e 54 5f 49 4e 54 4f 3a 73 77 69 74 63 68 5b     ENT_INTO:switch[
    28d1:	6d 61 7a 65 2e 31 37 5d 3a 44 45 46 41 55 4c 54     maze.17]:DEFAULT
    28e1:	5f 43 41 53 45 00                                   _CASE.

000028e7 <__c.4538>:
    28e7:	0a 0d 00                                            ...

000028ea <__c.4413>:
    28ea:	3a 20 45 52 52 4f 52 3a 3a 46 41 54 41 4c 3a 57     : ERROR::FATAL:W
    28fa:	45 4e 54 5f 49 4e 54 4f 3a 73 77 69 74 63 68 5b     ENT_INTO:switch[
    290a:	6d 61 7a 65 2e 30 36 5d 3a 44 45 46 41 55 4c 54     maze.06]:DEFAULT
    291a:	5f 43 41 53 45 00                                   _CASE.

00002920 <__c.4411>:
    2920:	0a 0d 00                                            ...

00002923 <__c.4401>:
    2923:	63 6c 63 6e 65 61 72 2c 20 74 69 6c 65 72 65 73     clcnear, tileres
    2933:	3a 00                                               :.

00002935 <__c.4391>:
    2935:	3a 20 45 52 52 4f 52 3a 3a 46 41 54 41 4c 3a 57     : ERROR::FATAL:W
    2945:	45 4e 54 5f 49 4e 54 4f 3a 73 77 69 74 63 68 5b     ENT_INTO:switch[
    2955:	6d 61 7a 65 2e 30 33 5d 3a 44 45 46 41 55 4c 54     maze.03]:DEFAULT
    2965:	5f 43 41 53 45 00                                   _CASE.

0000296b <__c.4389>:
    296b:	0a 0d 00                                            ...

0000296e <__c.4372>:
    296e:	3a 20 45 52 52 4f 52 3a 3a 72 6f 62 6f 74 2e 70     : ERROR::robot.p
    297e:	6f 73 2e 79 3a 4d 45 4d 4f 52 59 5f 54 4f 4f 5f     os.y:MEMORY_TOO_
    298e:	53 4d 41 4c 4c 3a 52 45 53 54 41 52 54 00           SMALL:RESTART.

0000299c <__c.4370>:
    299c:	0a 0d 00                                            ...

0000299f <__c.4368>:
    299f:	3a 20 45 52 52 4f 52 3a 3a 72 6f 62 6f 74 2e 70     : ERROR::robot.p
    29af:	6f 73 2e 78 3a 4d 45 4d 4f 52 59 5f 54 4f 4f 5f     os.x:MEMORY_TOO_
    29bf:	53 4d 41 4c 4c 3a 52 45 53 54 41 52 54 00           SMALL:RESTART.

000029cd <__c.4366>:
    29cd:	0a 0d 00                                            ...

000029d0 <__c.4364>:
    29d0:	3a 20 45 52 52 4f 52 3a 3a 46 41 54 41 4c 3a 57     : ERROR::FATAL:W
    29e0:	45 4e 54 5f 49 4e 54 4f 3a 73 77 69 74 63 68 5b     ENT_INTO:switch[
    29f0:	6d 61 7a 65 2e 30 32 5d 3a 44 45 46 41 55 4c 54     maze.02]:DEFAULT
    2a00:	5f 43 41 53 45 00                                   _CASE.

00002a06 <__c.4362>:
    2a06:	0a 0d 00                                            ...

00002a09 <__c.4354>:
    2a09:	3a 20 45 52 52 4f 52 3a 3a 46 41 54 41 4c 3a 57     : ERROR::FATAL:W
    2a19:	45 4e 54 5f 49 4e 54 4f 3a 73 77 69 74 63 68 5b     ENT_INTO:switch[
    2a29:	6d 61 7a 65 2e 30 32 5d 3a 44 45 46 41 55 4c 54     maze.02]:DEFAULT
    2a39:	5f 43 41 53 45 00                                   _CASE.

00002a3f <__c.4352>:
    2a3f:	0a 0d 00                                            ...

00002a42 <__c.4341>:
    2a42:	6d 73 00                                            ms.

00002a45 <__c.4339>:
    2a45:	3a 20 44 4f 4e 45 3a 3a 72 65 73 74 61 72 74 3a     : DONE::restart:
	...

00002a56 <__c.4337>:
    2a56:	0d 00                                               ..

00002a58 <__c.4328>:
    2a58:	3a 20 45 52 52 4f 52 3a 3a 46 41 54 41 4c 3a 57     : ERROR::FATAL:W
    2a68:	45 4e 54 5f 49 4e 54 4f 3a 73 77 69 74 63 68 5b     ENT_INTO:switch[
    2a78:	6d 61 7a 65 2e 30 33 5d 3a 44 45 46 41 55 4c 54     maze.03]:DEFAULT
    2a88:	5f 43 41 53 45 00                                   _CASE.

00002a8e <__c.4326>:
    2a8e:	0a 0d 00                                            ...

00002a91 <__c.4533>:
    2a91:	3a 20 45 52 52 4f 52 3a 3a 46 41 54 41 4c 3a 6d     : ERROR::FATAL:m
    2aa1:	61 7a 65 5f 63 68 67 4f 66 66 73 65 74 28 29 3a     aze_chgOffset():
    2ab1:	43 41 4e 54 00                                      CANT.

00002ab6 <__c.4531>:
    2ab6:	0a 0d 00                                            ...

00002ab9 <__c.4529>:
    2ab9:	3a 20 45 52 52 4f 52 3a 3a 46 41 54 41 4c 3a 57     : ERROR::FATAL:W
    2ac9:	45 4e 54 5f 49 4e 54 4f 3a 73 77 69 74 63 68 5b     ENT_INTO:switch[
    2ad9:	6d 61 7a 65 2e 31 35 5d 3a 44 45 46 41 55 4c 54     maze.15]:DEFAULT
    2ae9:	5f 43 41 53 45 00                                   _CASE.

00002aef <__c.4527>:
    2aef:	0a 0d 00                                            ...

00002af2 <__c.4524>:
    2af2:	5d 5f 7a 3a 20 00                                   ]_z: .

00002af8 <__c.4521>:
    2af8:	5d 2e 79 3a 20 00                                   ].y: .

00002afe <__c.4517>:
    2afe:	5d 2e 78 3a 20 00                                   ].x: .

00002b04 <__c.4514>:
    2b04:	3a 20 6e 65 77 3a 3a 6f 66 66 73 65 74 5b 00        : new::offset[.

00002b13 <__c.4512>:
    2b13:	0a 0d 00                                            ...

00002b16 <__c.4492>:
    2b16:	3a 20 45 52 52 4f 52 3a 3a 46 41 54 41 4c 3a 57     : ERROR::FATAL:W
    2b26:	45 4e 54 5f 49 4e 54 4f 3a 73 77 69 74 63 68 5b     ENT_INTO:switch[
    2b36:	6d 61 7a 65 2e 31 34 5d 3a 44 45 46 41 55 4c 54     maze.14]:DEFAULT
    2b46:	5f 43 41 53 45 00                                   _CASE.

00002b4c <__c.4490>:
    2b4c:	0a 0d 00                                            ...

00002b4f <__c.4424>:
    2b4f:	3a 20 45 52 52 4f 52 3a 3a 46 41 54 41 4c 3a 57     : ERROR::FATAL:W
    2b5f:	45 4e 54 5f 49 4e 54 4f 3a 73 77 69 74 63 68 5b     ENT_INTO:switch[
    2b6f:	6d 61 7a 65 2e 31 38 5d 3a 44 45 46 41 55 4c 54     maze.18]:DEFAULT
    2b7f:	5f 43 41 53 45 00                                   _CASE.

00002b85 <__c.4422>:
    2b85:	0a 0d 00                                            ...

00002b88 <__c.4177>:
    2b88:	3a 20 45 52 52 4f 52 3a 3a 46 41 54 41 4c 3a 57     : ERROR::FATAL:W
    2b98:	45 4e 54 5f 49 4e 54 4f 3a 73 77 69 74 63 68 5b     ENT_INTO:switch[
    2ba8:	6d 61 7a 65 2e 31 38 5d 3a 44 45 46 41 55 4c 54     maze.18]:DEFAULT
    2bb8:	5f 43 41 53 45 00                                   _CASE.

00002bbe <__c.4175>:
    2bbe:	0a 0d 00                                            ...

00002bc1 <__c.4085>:
    2bc1:	3a 20 45 52 52 4f 52 3a 3a 46 41 54 41 4c 3a 57     : ERROR::FATAL:W
    2bd1:	45 4e 54 5f 49 4e 54 4f 3a 73 77 69 74 63 68 5b     ENT_INTO:switch[
    2be1:	6d 61 7a 65 2e 30 39 5d 3a 44 45 46 41 55 4c 54     maze.09]:DEFAULT
    2bf1:	5f 43 41 53 45 00                                   _CASE.

00002bf7 <__c.4083>:
    2bf7:	0a 0d 00                                            ...

00002bfa <__c.4063>:
    2bfa:	3a 20 45 52 52 4f 52 3a 3a 46 41 54 41 4c 3a 57     : ERROR::FATAL:W
    2c0a:	45 4e 54 5f 49 4e 54 4f 3a 73 77 69 74 63 68 5b     ENT_INTO:switch[
    2c1a:	6d 61 7a 65 2e 30 38 5d 3a 44 45 46 41 55 4c 54     maze.08]:DEFAULT
    2c2a:	5f 43 41 53 45 00                                   _CASE.

00002c30 <__c.4061>:
    2c30:	0a 0d 00                                            ...

00002c33 <__c.4041>:
    2c33:	3a 20 45 52 52 4f 52 3a 3a 46 41 54 41 4c 3a 57     : ERROR::FATAL:W
    2c43:	45 4e 54 5f 49 4e 54 4f 3a 73 77 69 74 63 68 5b     ENT_INTO:switch[
    2c53:	6d 61 7a 65 2e 30 38 5d 3a 44 45 46 41 55 4c 54     maze.08]:DEFAULT
    2c63:	5f 43 41 53 45 00                                   _CASE.

00002c69 <__c.4039>:
    2c69:	0a 0d 00                                            ...

00002c6c <__c.3920>:
    2c6c:	3a 20 45 52 52 4f 52 3a 3a 46 41 54 41 4c 3a 57     : ERROR::FATAL:W
    2c7c:	45 4e 54 5f 49 4e 54 4f 3a 49 53 52 28 54 49 4d     ENT_INTO:ISR(TIM
    2c8c:	45 52 32 5f 43 4f 4d 50 41 5f 76 65 63 74 29 5b     ER2_COMPA_vect)[
    2c9c:	74 61 73 6b 5f 61 64 63 5d 3a 3a 63 61 73 65 3a     task_adc]::case:
    2cac:	64 65 66 61 75 6c 74 00                             default.

00002cb4 <__c.3918>:
    2cb4:	0a 0d 00                                            ...

00002cb7 <u8g_avr_port_P>:
    2cb7:	22 00 25 00 28 00 2b 00 2e 00 31 00 34 00 02 01     ".%.(.+...1.4...

00002cc7 <u8g_avr_ddr_P>:
    2cc7:	21 00 24 00 27 00 2a 00 2d 00 30 00 33 00 01 01     !.$.'.*.-.0.3...

00002cd7 <u8g_dev_st7920_128x64_init_seq>:
    2cd7:	ff d0 ff e0 ff cf ff 64 ff d1 ff 32 38 0c 06 02     .......d...28...
    2ce7:	01 ff 64 ff d0 ff fe                                ..d....

00002cee <__ctors_end>:
    2cee:	11 24       	eor	r1, r1
    2cf0:	1f be       	out	0x3f, r1	; 63
    2cf2:	cf ef       	ldi	r28, 0xFF	; 255
    2cf4:	d1 e2       	ldi	r29, 0x21	; 33
    2cf6:	de bf       	out	0x3e, r29	; 62
    2cf8:	cd bf       	out	0x3d, r28	; 61
    2cfa:	00 e0       	ldi	r16, 0x00	; 0
    2cfc:	0c bf       	out	0x3c, r16	; 60

00002cfe <init_mem>:
    2cfe:	e0 ed       	ldi	r30, 0xD0	; 208
    2d00:	f7 e1       	ldi	r31, 0x17	; 23
    2d02:	8a ea       	ldi	r24, 0xAA	; 170
    2d04:	92 e2       	ldi	r25, 0x22	; 34
    2d06:	81 93       	st	Z+, r24
    2d08:	e0 30       	cpi	r30, 0x00	; 0
    2d0a:	f9 07       	cpc	r31, r25
    2d0c:	e0 f3       	brcs	.-8      	; 0x2d06 <init_mem+0x8>

00002d0e <__do_copy_data>:
    2d0e:	15 e0       	ldi	r17, 0x05	; 5
    2d10:	a0 e0       	ldi	r26, 0x00	; 0
    2d12:	b2 e0       	ldi	r27, 0x02	; 2
    2d14:	e2 e1       	ldi	r30, 0x12	; 18
    2d16:	f9 ed       	ldi	r31, 0xD9	; 217
    2d18:	00 e0       	ldi	r16, 0x00	; 0
    2d1a:	0b bf       	out	0x3b, r16	; 59
    2d1c:	02 c0       	rjmp	.+4      	; 0x2d22 <__do_copy_data+0x14>
    2d1e:	07 90       	elpm	r0, Z+
    2d20:	0d 92       	st	X+, r0
    2d22:	a6 34       	cpi	r26, 0x46	; 70
    2d24:	b1 07       	cpc	r27, r17
    2d26:	d9 f7       	brne	.-10     	; 0x2d1e <__do_copy_data+0x10>

00002d28 <__do_clear_bss>:
    2d28:	17 e1       	ldi	r17, 0x17	; 23
    2d2a:	a6 e4       	ldi	r26, 0x46	; 70
    2d2c:	b5 e0       	ldi	r27, 0x05	; 5
    2d2e:	01 c0       	rjmp	.+2      	; 0x2d32 <.do_clear_bss_start>

00002d30 <.do_clear_bss_loop>:
    2d30:	1d 92       	st	X+, r1

00002d32 <.do_clear_bss_start>:
    2d32:	a0 3d       	cpi	r26, 0xD0	; 208
    2d34:	b1 07       	cpc	r27, r17
    2d36:	e1 f7       	brne	.-8      	; 0x2d30 <.do_clear_bss_loop>
    2d38:	97 d2       	rcall	.+1326   	; 0x3268 <main>
    2d3a:	0c 94 87 6c 	jmp	0xd90e	; 0xd90e <_exit>

00002d3e <__bad_interrupt>:
    2d3e:	0c 94 00 00 	jmp	0	; 0x0 <__vectors>

00002d42 <task_timer>:
////////////////////////////////////////////////////////////////////////////////
////////////////////////////TASK TIMER//////////////////////////////////////////
////////////////////////////////////////////////////////////////////////////////

int8_t task_timer(int8_t state)
{
    2d42:	8f 92       	push	r8
    2d44:	9f 92       	push	r9
    2d46:	af 92       	push	r10
    2d48:	bf 92       	push	r11
    2d4a:	cf 92       	push	r12
    2d4c:	df 92       	push	r13
    2d4e:	ef 92       	push	r14
    2d50:	ff 92       	push	r15
	//////(rotary) encoder///////////
	//Source: http://www.mikrocontroller.net/articles/Drehgeber

	incr_last = (incr_last << 2)  & 0x0F;
    2d52:	80 91 5c 05 	lds	r24, 0x055C
    2d56:	24 e0       	ldi	r18, 0x04	; 4
    2d58:	82 02       	muls	r24, r18
    2d5a:	c0 01       	movw	r24, r0
    2d5c:	11 24       	eor	r1, r1
    2d5e:	8f 70       	andi	r24, 0x0F	; 15
    2d60:	80 93 5c 05 	sts	0x055C, r24
	if(INCR_PHASE_A)
    2d64:	31 9b       	sbis	0x06, 1	; 6
    2d66:	03 c0       	rjmp	.+6      	; 0x2d6e <task_timer+0x2c>
		incr_last |=2;
    2d68:	82 60       	ori	r24, 0x02	; 2
    2d6a:	80 93 5c 05 	sts	0x055C, r24
	if(INCR_PHASE_B)
    2d6e:	32 9b       	sbis	0x06, 2	; 6
    2d70:	05 c0       	rjmp	.+10     	; 0x2d7c <task_timer+0x3a>
		incr_last |=1;
    2d72:	80 91 5c 05 	lds	r24, 0x055C
    2d76:	81 60       	ori	r24, 0x01	; 1
    2d78:	80 93 5c 05 	sts	0x055C, r24
	incremental += (int8_t)pgm_read_byte(&incr_table[incr_last]);
    2d7c:	40 91 5c 05 	lds	r20, 0x055C
    2d80:	e4 2f       	mov	r30, r20
    2d82:	ff 27       	eor	r31, r31
    2d84:	e7 fd       	sbrc	r30, 7
    2d86:	f0 95       	com	r31
    2d88:	e6 58       	subi	r30, 0x86	; 134
    2d8a:	fd 4f       	sbci	r31, 0xFD	; 253
    2d8c:	44 91       	lpm	r20, Z
    2d8e:	55 27       	eor	r21, r21
    2d90:	47 fd       	sbrc	r20, 7
    2d92:	50 95       	com	r21
    2d94:	65 2f       	mov	r22, r21
    2d96:	75 2f       	mov	r23, r21
    2d98:	80 91 58 05 	lds	r24, 0x0558
    2d9c:	90 91 59 05 	lds	r25, 0x0559
    2da0:	a0 91 5a 05 	lds	r26, 0x055A
    2da4:	b0 91 5b 05 	lds	r27, 0x055B
    2da8:	84 0f       	add	r24, r20
    2daa:	95 1f       	adc	r25, r21
    2dac:	a6 1f       	adc	r26, r22
    2dae:	b7 1f       	adc	r27, r23
    2db0:	80 93 58 05 	sts	0x0558, r24
    2db4:	90 93 59 05 	sts	0x0559, r25
    2db8:	a0 93 5a 05 	sts	0x055A, r26
    2dbc:	b0 93 5b 05 	sts	0x055B, r27
	
	
	int8_t new, diff;
			 
	new = 0;
	if(ENC_L_PHASE_A)		new = 3;
    2dc0:	00 99       	sbic	0x00, 0	; 0
    2dc2:	02 c0       	rjmp	.+4      	; 0x2dc8 <task_timer+0x86>
	incremental += (int8_t)pgm_read_byte(&incr_table[incr_last]);
	
	
	int8_t new, diff;
			 
	new = 0;
    2dc4:	80 e0       	ldi	r24, 0x00	; 0
    2dc6:	01 c0       	rjmp	.+2      	; 0x2dca <task_timer+0x88>
	if(ENC_L_PHASE_A)		new = 3;
    2dc8:	83 e0       	ldi	r24, 0x03	; 3
	if(ENC_L_PHASE_B)		new ^= 1;		// convert gray to binary
    2dca:	67 9b       	sbis	0x0c, 7	; 12
    2dcc:	02 c0       	rjmp	.+4      	; 0x2dd2 <task_timer+0x90>
    2dce:	91 e0       	ldi	r25, 0x01	; 1
    2dd0:	89 27       	eor	r24, r25
	diff = enc_l_last - new;				// difference last - new
    2dd2:	40 91 57 05 	lds	r20, 0x0557
    2dd6:	48 1b       	sub	r20, r24
	if( diff & 1 ){									// bit 0 = value (1)
    2dd8:	40 ff       	sbrs	r20, 0
    2dda:	3e c0       	rjmp	.+124    	; 0x2e58 <task_timer+0x116>
		enc_l_last = new;							// store new as next last
    2ddc:	80 93 57 05 	sts	0x0557, r24

		mot.d[LEFT].enc += (diff & 2) - 1;	// bit 1 = direction (+/-)
    2de0:	42 70       	andi	r20, 0x02	; 2
    2de2:	55 27       	eor	r21, r21
    2de4:	47 fd       	sbrc	r20, 7
    2de6:	50 95       	com	r21
    2de8:	41 50       	subi	r20, 0x01	; 1
    2dea:	51 09       	sbc	r21, r1
    2dec:	6a 01       	movw	r12, r20
    2dee:	ee 24       	eor	r14, r14
    2df0:	d7 fc       	sbrc	r13, 7
    2df2:	e0 94       	com	r14
    2df4:	fe 2c       	mov	r15, r14
    2df6:	80 91 6b 16 	lds	r24, 0x166B
    2dfa:	90 91 6c 16 	lds	r25, 0x166C
    2dfe:	a0 91 6d 16 	lds	r26, 0x166D
    2e02:	b0 91 6e 16 	lds	r27, 0x166E
    2e06:	8c 0d       	add	r24, r12
    2e08:	9d 1d       	adc	r25, r13
    2e0a:	ae 1d       	adc	r26, r14
    2e0c:	bf 1d       	adc	r27, r15
    2e0e:	80 93 6b 16 	sts	0x166B, r24
    2e12:	90 93 6c 16 	sts	0x166C, r25
    2e16:	a0 93 6d 16 	sts	0x166D, r26
    2e1a:	b0 93 6e 16 	sts	0x166E, r27
		mot.d[LEFT].enc_abs += abs((diff & 2) -1);
    2e1e:	57 ff       	sbrs	r21, 7
    2e20:	03 c0       	rjmp	.+6      	; 0x2e28 <task_timer+0xe6>
    2e22:	51 95       	neg	r21
    2e24:	41 95       	neg	r20
    2e26:	51 09       	sbc	r21, r1
    2e28:	66 27       	eor	r22, r22
    2e2a:	57 fd       	sbrc	r21, 7
    2e2c:	60 95       	com	r22
    2e2e:	76 2f       	mov	r23, r22
    2e30:	80 91 6f 16 	lds	r24, 0x166F
    2e34:	90 91 70 16 	lds	r25, 0x1670
    2e38:	a0 91 71 16 	lds	r26, 0x1671
    2e3c:	b0 91 72 16 	lds	r27, 0x1672
    2e40:	84 0f       	add	r24, r20
    2e42:	95 1f       	adc	r25, r21
    2e44:	a6 1f       	adc	r26, r22
    2e46:	b7 1f       	adc	r27, r23
    2e48:	80 93 6f 16 	sts	0x166F, r24
    2e4c:	90 93 70 16 	sts	0x1670, r25
    2e50:	a0 93 71 16 	sts	0x1671, r26
    2e54:	b0 93 72 16 	sts	0x1672, r27
	}

	new = 0;
	if(ENC_R_PHASE_A)		new = 3;
    2e58:	66 99       	sbic	0x0c, 6	; 12
    2e5a:	02 c0       	rjmp	.+4      	; 0x2e60 <task_timer+0x11e>

		mot.d[LEFT].enc += (diff & 2) - 1;	// bit 1 = direction (+/-)
		mot.d[LEFT].enc_abs += abs((diff & 2) -1);
	}

	new = 0;
    2e5c:	80 e0       	ldi	r24, 0x00	; 0
    2e5e:	01 c0       	rjmp	.+2      	; 0x2e62 <task_timer+0x120>
	if(ENC_R_PHASE_A)		new = 3;
    2e60:	83 e0       	ldi	r24, 0x03	; 3
	if(ENC_R_PHASE_B)		new ^= 1;		// convert gray to binary
    2e62:	01 9b       	sbis	0x00, 1	; 0
    2e64:	02 c0       	rjmp	.+4      	; 0x2e6a <task_timer+0x128>
    2e66:	91 e0       	ldi	r25, 0x01	; 1
    2e68:	89 27       	eor	r24, r25
	diff = enc_r_last - new;				// difference last - new
    2e6a:	40 91 56 05 	lds	r20, 0x0556
    2e6e:	48 1b       	sub	r20, r24
	if( diff & 1 ){									// bit 0 = value (1)
    2e70:	40 ff       	sbrs	r20, 0
    2e72:	3e c0       	rjmp	.+124    	; 0x2ef0 <task_timer+0x1ae>
		enc_r_last = new;							// store new as next last
    2e74:	80 93 56 05 	sts	0x0556, r24
		mot.d[RIGHT].enc += (diff & 2) - 1;	// bit 1 = direction (+/-)
    2e78:	42 70       	andi	r20, 0x02	; 2
    2e7a:	55 27       	eor	r21, r21
    2e7c:	47 fd       	sbrc	r20, 7
    2e7e:	50 95       	com	r21
    2e80:	41 50       	subi	r20, 0x01	; 1
    2e82:	51 09       	sbc	r21, r1
    2e84:	6a 01       	movw	r12, r20
    2e86:	ee 24       	eor	r14, r14
    2e88:	d7 fc       	sbrc	r13, 7
    2e8a:	e0 94       	com	r14
    2e8c:	fe 2c       	mov	r15, r14
    2e8e:	80 91 77 16 	lds	r24, 0x1677
    2e92:	90 91 78 16 	lds	r25, 0x1678
    2e96:	a0 91 79 16 	lds	r26, 0x1679
    2e9a:	b0 91 7a 16 	lds	r27, 0x167A
    2e9e:	8c 0d       	add	r24, r12
    2ea0:	9d 1d       	adc	r25, r13
    2ea2:	ae 1d       	adc	r26, r14
    2ea4:	bf 1d       	adc	r27, r15
    2ea6:	80 93 77 16 	sts	0x1677, r24
    2eaa:	90 93 78 16 	sts	0x1678, r25
    2eae:	a0 93 79 16 	sts	0x1679, r26
    2eb2:	b0 93 7a 16 	sts	0x167A, r27
		mot.d[RIGHT].enc_abs += abs((diff & 2) -1);
    2eb6:	57 ff       	sbrs	r21, 7
    2eb8:	03 c0       	rjmp	.+6      	; 0x2ec0 <task_timer+0x17e>
    2eba:	51 95       	neg	r21
    2ebc:	41 95       	neg	r20
    2ebe:	51 09       	sbc	r21, r1
    2ec0:	66 27       	eor	r22, r22
    2ec2:	57 fd       	sbrc	r21, 7
    2ec4:	60 95       	com	r22
    2ec6:	76 2f       	mov	r23, r22
    2ec8:	80 91 7b 16 	lds	r24, 0x167B
    2ecc:	90 91 7c 16 	lds	r25, 0x167C
    2ed0:	a0 91 7d 16 	lds	r26, 0x167D
    2ed4:	b0 91 7e 16 	lds	r27, 0x167E
    2ed8:	84 0f       	add	r24, r20
    2eda:	95 1f       	adc	r25, r21
    2edc:	a6 1f       	adc	r26, r22
    2ede:	b7 1f       	adc	r27, r23
    2ee0:	80 93 7b 16 	sts	0x167B, r24
    2ee4:	90 93 7c 16 	sts	0x167C, r25
    2ee8:	a0 93 7d 16 	sts	0x167D, r26
    2eec:	b0 93 7e 16 	sts	0x167E, r27
	}

	mot.enc = ((mot.d[LEFT].enc/2) + (mot.d[RIGHT].enc/2));
    2ef0:	60 91 6b 16 	lds	r22, 0x166B
    2ef4:	70 91 6c 16 	lds	r23, 0x166C
    2ef8:	80 91 6d 16 	lds	r24, 0x166D
    2efc:	90 91 6e 16 	lds	r25, 0x166E
    2f00:	22 e0       	ldi	r18, 0x02	; 2
    2f02:	82 2e       	mov	r8, r18
    2f04:	91 2c       	mov	r9, r1
    2f06:	a1 2c       	mov	r10, r1
    2f08:	b1 2c       	mov	r11, r1
    2f0a:	a5 01       	movw	r20, r10
    2f0c:	94 01       	movw	r18, r8
    2f0e:	0e 94 7f 6b 	call	0xd6fe	; 0xd6fe <__divmodsi4>
    2f12:	69 01       	movw	r12, r18
    2f14:	7a 01       	movw	r14, r20
    2f16:	60 91 77 16 	lds	r22, 0x1677
    2f1a:	70 91 78 16 	lds	r23, 0x1678
    2f1e:	80 91 79 16 	lds	r24, 0x1679
    2f22:	90 91 7a 16 	lds	r25, 0x167A
    2f26:	a5 01       	movw	r20, r10
    2f28:	94 01       	movw	r18, r8
    2f2a:	0e 94 7f 6b 	call	0xd6fe	; 0xd6fe <__divmodsi4>
    2f2e:	c2 0e       	add	r12, r18
    2f30:	d3 1e       	adc	r13, r19
    2f32:	e4 1e       	adc	r14, r20
    2f34:	f5 1e       	adc	r15, r21
    2f36:	c0 92 81 16 	sts	0x1681, r12
    2f3a:	d0 92 82 16 	sts	0x1682, r13
    2f3e:	e0 92 83 16 	sts	0x1683, r14
    2f42:	f0 92 84 16 	sts	0x1684, r15

	//////Timer/////////////

	timer_25ms ++;
    2f46:	80 91 4b 05 	lds	r24, 0x054B
    2f4a:	8f 5f       	subi	r24, 0xFF	; 255
    2f4c:	80 93 4b 05 	sts	0x054B, r24
	if(timer_25ms == 25) //40Hz
    2f50:	89 31       	cpi	r24, 0x19	; 25
    2f52:	09 f0       	breq	.+2      	; 0x2f56 <task_timer+0x214>
    2f54:	63 c0       	rjmp	.+198    	; 0x301c <task_timer+0x2da>
	{
		if(timer_victim_led > 0)
    2f56:	80 91 97 02 	lds	r24, 0x0297
    2f5a:	90 91 98 02 	lds	r25, 0x0298
    2f5e:	18 16       	cp	r1, r24
    2f60:	19 06       	cpc	r1, r25
    2f62:	2c f4       	brge	.+10     	; 0x2f6e <task_timer+0x22c>
			timer_victim_led --;
    2f64:	01 97       	sbiw	r24, 0x01	; 1
    2f66:	90 93 98 02 	sts	0x0298, r25
    2f6a:	80 93 97 02 	sts	0x0297, r24
		if(timer_entpr_tast > 0)
    2f6e:	80 91 51 05 	lds	r24, 0x0551
    2f72:	18 16       	cp	r1, r24
    2f74:	1c f4       	brge	.+6      	; 0x2f7c <task_timer+0x23a>
			timer_entpr_tast --;
    2f76:	81 50       	subi	r24, 0x01	; 1
    2f78:	80 93 51 05 	sts	0x0551, r24
		if(timer_incr_entpr > 0)
    2f7c:	80 91 50 05 	lds	r24, 0x0550
    2f80:	18 16       	cp	r1, r24
    2f82:	1c f4       	brge	.+6      	; 0x2f8a <task_timer+0x248>
			timer_incr_entpr --;
    2f84:	81 50       	subi	r24, 0x01	; 1
    2f86:	80 93 50 05 	sts	0x0550, r24
		if(timer_bt_is_busy > 0)
    2f8a:	80 91 4f 05 	lds	r24, 0x054F
    2f8e:	18 16       	cp	r1, r24
    2f90:	1c f4       	brge	.+6      	; 0x2f98 <task_timer+0x256>
			timer_bt_is_busy --;
    2f92:	81 50       	subi	r24, 0x01	; 1
    2f94:	80 93 4f 05 	sts	0x054F, r24
		if(timer_drive > 0)
    2f98:	80 91 95 02 	lds	r24, 0x0295
    2f9c:	90 91 96 02 	lds	r25, 0x0296
    2fa0:	18 16       	cp	r1, r24
    2fa2:	19 06       	cpc	r1, r25
    2fa4:	2c f4       	brge	.+10     	; 0x2fb0 <task_timer+0x26e>
			timer_drive --;
    2fa6:	01 97       	sbiw	r24, 0x01	; 1
    2fa8:	90 93 96 02 	sts	0x0296, r25
    2fac:	80 93 95 02 	sts	0x0295, r24
		if(timer_disp_msg > 0)
    2fb0:	80 91 4e 05 	lds	r24, 0x054E
    2fb4:	18 16       	cp	r1, r24
    2fb6:	1c f4       	brge	.+6      	; 0x2fbe <task_timer+0x27c>
			timer_disp_msg --;
    2fb8:	81 50       	subi	r24, 0x01	; 1
    2fba:	80 93 4e 05 	sts	0x054E, r24
		if(timer_get_tast > 0)
    2fbe:	80 91 4d 05 	lds	r24, 0x054D
    2fc2:	18 16       	cp	r1, r24
    2fc4:	1c f4       	brge	.+6      	; 0x2fcc <task_timer+0x28a>
			timer_get_tast --;
    2fc6:	81 50       	subi	r24, 0x01	; 1
    2fc8:	80 93 4d 05 	sts	0x054D, r24
		if(timer_rdy_restart > 0)
    2fcc:	80 91 93 02 	lds	r24, 0x0293
    2fd0:	90 91 94 02 	lds	r25, 0x0294
    2fd4:	18 16       	cp	r1, r24
    2fd6:	19 06       	cpc	r1, r25
    2fd8:	2c f4       	brge	.+10     	; 0x2fe4 <task_timer+0x2a2>
			timer_rdy_restart --;
    2fda:	01 97       	sbiw	r24, 0x01	; 1
    2fdc:	90 93 94 02 	sts	0x0294, r25
    2fe0:	80 93 93 02 	sts	0x0293, r24
		if(timer_map_wall_r > 0)
    2fe4:	80 91 4c 05 	lds	r24, 0x054C
    2fe8:	18 16       	cp	r1, r24
    2fea:	1c f4       	brge	.+6      	; 0x2ff2 <task_timer+0x2b0>
			timer_map_wall_r --;
    2fec:	81 50       	subi	r24, 0x01	; 1
    2fee:	80 93 4c 05 	sts	0x054C, r24
		if(timer_lop > 0)
    2ff2:	80 91 91 02 	lds	r24, 0x0291
    2ff6:	90 91 92 02 	lds	r25, 0x0292
    2ffa:	18 16       	cp	r1, r24
    2ffc:	19 06       	cpc	r1, r25
    2ffe:	2c f4       	brge	.+10     	; 0x300a <task_timer+0x2c8>
			timer_lop --;
    3000:	01 97       	sbiw	r24, 0x01	; 1
    3002:	90 93 92 02 	sts	0x0292, r25
    3006:	80 93 91 02 	sts	0x0291, r24
		if(timer_vic_ramp > 0)
    300a:	80 91 90 02 	lds	r24, 0x0290
    300e:	18 16       	cp	r1, r24
    3010:	1c f4       	brge	.+6      	; 0x3018 <task_timer+0x2d6>
			timer_vic_ramp --;
    3012:	81 50       	subi	r24, 0x01	; 1
    3014:	80 93 90 02 	sts	0x0290, r24

		timer_25ms = 0;
    3018:	10 92 4b 05 	sts	0x054B, r1
	}

	return 0;
}
    301c:	80 e0       	ldi	r24, 0x00	; 0
    301e:	ff 90       	pop	r15
    3020:	ef 90       	pop	r14
    3022:	df 90       	pop	r13
    3024:	cf 90       	pop	r12
    3026:	bf 90       	pop	r11
    3028:	af 90       	pop	r10
    302a:	9f 90       	pop	r9
    302c:	8f 90       	pop	r8
    302e:	08 95       	ret

00003030 <task_cam>:
int8_t task_cam(int8_t state)
{
	//pixy_get();

	return 0;//tsl1401(state);
}
    3030:	80 e0       	ldi	r24, 0x00	; 0
    3032:	08 95       	ret

00003034 <task_speedreg>:
////////////////////////////////////////////////////////////////////////////////

int8_t task_speedreg(int8_t state)
{
	//Turn motor off?
	if(	mot.off || mot.off_invisible)
    3034:	80 91 7f 16 	lds	r24, 0x167F
    3038:	81 11       	cpse	r24, r1
    303a:	04 c0       	rjmp	.+8      	; 0x3044 <task_speedreg+0x10>
    303c:	80 91 80 16 	lds	r24, 0x1680
    3040:	88 23       	and	r24, r24
    3042:	41 f0       	breq	.+16     	; 0x3054 <task_speedreg+0x20>
	{
		mot.d[LEFT].speed.to = 0;
    3044:	10 92 6a 16 	sts	0x166A, r1
    3048:	10 92 69 16 	sts	0x1669, r1
		mot.d[RIGHT].speed.to = 0;
    304c:	10 92 76 16 	sts	0x1676, r1
    3050:	10 92 75 16 	sts	0x1675, r1
	}
	controlSpeed(); //Speed Regulation
    3054:	0e 94 4f 5c 	call	0xb89e	; 0xb89e <controlSpeed>
	
	return 0;
}
    3058:	80 e0       	ldi	r24, 0x00	; 0
    305a:	08 95       	ret

0000305c <task_sensors>:

int8_t task_sensors(int8_t state)
{
	//IC sensors
	///Temperature
	check_mlx = getIR();
    305c:	0e 94 10 3b 	call	0x7620	; 0x7620 <getIR>
    3060:	80 93 67 05 	sts	0x0567, r24
	victim_scan();
    3064:	0e 94 3a 62 	call	0xc474	; 0xc474 <victim_scan>

	////Ultrasonic distance
	//check_srf = getSRF();

	//UM6
	check_um6 = um6_getUM6();
    3068:	0e 94 69 60 	call	0xc0d2	; 0xc0d2 <um6_getUM6>
    306c:	80 93 65 05 	sts	0x0565, r24

	//pixy_get();
	//displayvar[2] = pixy_number_of_blocks;
	return 0;
}
    3070:	80 e0       	ldi	r24, 0x00	; 0
    3072:	08 95       	ret

00003074 <task_anasens>:
////////////////////////////////////////////////////////////////////////////////

int8_t task_anasens(int8_t state)
{
	//analog
	get_analogSensors(); //Sharp infrared distance sensors, groundsensor
    3074:	0e 94 d5 36 	call	0x6daa	; 0x6daa <get_analogSensors>
	return 0;
}
    3078:	80 e0       	ldi	r24, 0x00	; 0
    307a:	08 95       	ret

0000307c <task_maze>:
char drive_tile_11[DRIVE_TILE_5_L] = "fffdllfffrur";
char drive_tile_12[DRIVE_TILE_6_L] = "fffflfdllfrffffrur";

int8_t task_maze(int8_t state)
{
	if(setup == 0)
    307c:	80 91 54 05 	lds	r24, 0x0554
    3080:	81 11       	cpse	r24, r1
    3082:	02 c0       	rjmp	.+4      	; 0x3088 <task_maze+0xc>
	{
		maze_solve();
    3084:	0e 94 db 3c 	call	0x79b6	; 0x79b6 <maze_solve>
	if(get_incrOk())
	{
		testvar = 0;
	}*/

	if(!mot.off)
    3088:	80 91 7f 16 	lds	r24, 0x167F
    308c:	81 11       	cpse	r24, r1
    308e:	5b c0       	rjmp	.+182    	; 0x3146 <task_maze+0xca>
	{
		if(robot.pos.z == 0)
    3090:	90 91 4a 16 	lds	r25, 0x164A
    3094:	80 91 46 05 	lds	r24, 0x0546
    3098:	91 11       	cpse	r25, r1
    309a:	26 c0       	rjmp	.+76     	; 0x30e8 <task_maze+0x6c>
		{
			switch (testvar) {
    309c:	82 30       	cpi	r24, 0x02	; 2
    309e:	c1 f0       	breq	.+48     	; 0x30d0 <task_maze+0x54>
    30a0:	4c f4       	brge	.+18     	; 0x30b4 <task_maze+0x38>
    30a2:	88 23       	and	r24, r24
    30a4:	89 f0       	breq	.+34     	; 0x30c8 <task_maze+0x4c>
    30a6:	81 30       	cpi	r24, 0x01	; 1
    30a8:	09 f0       	breq	.+2      	; 0x30ac <task_maze+0x30>
    30aa:	4b c0       	rjmp	.+150    	; 0x3142 <task_maze+0xc6>
			case 0:	if(!drive_instructions(drive_tile_1, DRIVE_TILE_1_L)) testvar ++; break;
			case 1:	if(!drive_instructions(drive_tile_2, DRIVE_TILE_2_L)) testvar ++; break;
    30ac:	68 e0       	ldi	r22, 0x08	; 8
    30ae:	80 e8       	ldi	r24, 0x80	; 128
    30b0:	92 e0       	ldi	r25, 0x02	; 2
    30b2:	3d c0       	rjmp	.+122    	; 0x312e <task_maze+0xb2>

	if(!mot.off)
	{
		if(robot.pos.z == 0)
		{
			switch (testvar) {
    30b4:	84 30       	cpi	r24, 0x04	; 4
    30b6:	a1 f0       	breq	.+40     	; 0x30e0 <task_maze+0x64>
    30b8:	7c f0       	brlt	.+30     	; 0x30d8 <task_maze+0x5c>
    30ba:	85 30       	cpi	r24, 0x05	; 5
    30bc:	09 f0       	breq	.+2      	; 0x30c0 <task_maze+0x44>
    30be:	41 c0       	rjmp	.+130    	; 0x3142 <task_maze+0xc6>
			case 0:	if(!drive_instructions(drive_tile_1, DRIVE_TILE_1_L)) testvar ++; break;
			case 1:	if(!drive_instructions(drive_tile_2, DRIVE_TILE_2_L)) testvar ++; break;
			case 2:	if(!drive_instructions(drive_tile_3, DRIVE_TILE_3_L)) testvar ++; break;
			case 3:	if(!drive_instructions(drive_tile_4, DRIVE_TILE_4_L)) testvar ++; break;
			case 4:	if(!drive_instructions(drive_tile_5, DRIVE_TILE_5_L)) testvar ++; break;
			case 5:	if(!drive_instructions(drive_tile_6, DRIVE_TILE_6_L)) testvar ++; break;
    30c0:	62 e1       	ldi	r22, 0x12	; 18
    30c2:	88 e4       	ldi	r24, 0x48	; 72
    30c4:	92 e0       	ldi	r25, 0x02	; 2
    30c6:	33 c0       	rjmp	.+102    	; 0x312e <task_maze+0xb2>
	if(!mot.off)
	{
		if(robot.pos.z == 0)
		{
			switch (testvar) {
			case 0:	if(!drive_instructions(drive_tile_1, DRIVE_TILE_1_L)) testvar ++; break;
    30c8:	68 e0       	ldi	r22, 0x08	; 8
    30ca:	88 e8       	ldi	r24, 0x88	; 136
    30cc:	92 e0       	ldi	r25, 0x02	; 2
    30ce:	2f c0       	rjmp	.+94     	; 0x312e <task_maze+0xb2>
			case 1:	if(!drive_instructions(drive_tile_2, DRIVE_TILE_2_L)) testvar ++; break;
			case 2:	if(!drive_instructions(drive_tile_3, DRIVE_TILE_3_L)) testvar ++; break;
    30d0:	6e e0       	ldi	r22, 0x0E	; 14
    30d2:	82 e7       	ldi	r24, 0x72	; 114
    30d4:	92 e0       	ldi	r25, 0x02	; 2
    30d6:	2b c0       	rjmp	.+86     	; 0x312e <task_maze+0xb2>
			case 3:	if(!drive_instructions(drive_tile_4, DRIVE_TILE_4_L)) testvar ++; break;
    30d8:	6c e0       	ldi	r22, 0x0C	; 12
    30da:	86 e6       	ldi	r24, 0x66	; 102
    30dc:	92 e0       	ldi	r25, 0x02	; 2
    30de:	27 c0       	rjmp	.+78     	; 0x312e <task_maze+0xb2>
			case 4:	if(!drive_instructions(drive_tile_5, DRIVE_TILE_5_L)) testvar ++; break;
    30e0:	6c e0       	ldi	r22, 0x0C	; 12
    30e2:	8a e5       	ldi	r24, 0x5A	; 90
    30e4:	92 e0       	ldi	r25, 0x02	; 2
    30e6:	23 c0       	rjmp	.+70     	; 0x312e <task_maze+0xb2>
			default: testvar = 0; break;
			}
		}
		else
		{
			switch (testvar) {
    30e8:	82 30       	cpi	r24, 0x02	; 2
    30ea:	b1 f0       	breq	.+44     	; 0x3118 <task_maze+0x9c>
    30ec:	44 f4       	brge	.+16     	; 0x30fe <task_maze+0x82>
    30ee:	88 23       	and	r24, r24
    30f0:	79 f0       	breq	.+30     	; 0x3110 <task_maze+0x94>
    30f2:	81 30       	cpi	r24, 0x01	; 1
    30f4:	31 f5       	brne	.+76     	; 0x3142 <task_maze+0xc6>
			case 0:	if(!drive_instructions(drive_tile_7, DRIVE_TILE_1_L)) testvar ++; break;
			case 1:	if(!drive_instructions(drive_tile_8, DRIVE_TILE_2_L)) testvar ++; break;
    30f6:	68 e0       	ldi	r22, 0x08	; 8
    30f8:	88 e3       	ldi	r24, 0x38	; 56
    30fa:	92 e0       	ldi	r25, 0x02	; 2
    30fc:	18 c0       	rjmp	.+48     	; 0x312e <task_maze+0xb2>
			default: testvar = 0; break;
			}
		}
		else
		{
			switch (testvar) {
    30fe:	84 30       	cpi	r24, 0x04	; 4
    3100:	99 f0       	breq	.+38     	; 0x3128 <task_maze+0xac>
    3102:	74 f0       	brlt	.+28     	; 0x3120 <task_maze+0xa4>
    3104:	85 30       	cpi	r24, 0x05	; 5
    3106:	e9 f4       	brne	.+58     	; 0x3142 <task_maze+0xc6>
			case 0:	if(!drive_instructions(drive_tile_7, DRIVE_TILE_1_L)) testvar ++; break;
			case 1:	if(!drive_instructions(drive_tile_8, DRIVE_TILE_2_L)) testvar ++; break;
			case 2:	if(!drive_instructions(drive_tile_9, DRIVE_TILE_3_L)) testvar ++; break;
			case 3:	if(!drive_instructions(drive_tile_10, DRIVE_TILE_4_L)) testvar ++; break;
			case 4:	if(!drive_instructions(drive_tile_11, DRIVE_TILE_5_L)) testvar ++; break;
			case 5:	if(!drive_instructions(drive_tile_12, DRIVE_TILE_6_L)) testvar ++; break;
    3108:	62 e1       	ldi	r22, 0x12	; 18
    310a:	80 e0       	ldi	r24, 0x00	; 0
    310c:	92 e0       	ldi	r25, 0x02	; 2
    310e:	0f c0       	rjmp	.+30     	; 0x312e <task_maze+0xb2>
			}
		}
		else
		{
			switch (testvar) {
			case 0:	if(!drive_instructions(drive_tile_7, DRIVE_TILE_1_L)) testvar ++; break;
    3110:	68 e0       	ldi	r22, 0x08	; 8
    3112:	80 e4       	ldi	r24, 0x40	; 64
    3114:	92 e0       	ldi	r25, 0x02	; 2
    3116:	0b c0       	rjmp	.+22     	; 0x312e <task_maze+0xb2>
			case 1:	if(!drive_instructions(drive_tile_8, DRIVE_TILE_2_L)) testvar ++; break;
			case 2:	if(!drive_instructions(drive_tile_9, DRIVE_TILE_3_L)) testvar ++; break;
    3118:	6e e0       	ldi	r22, 0x0E	; 14
    311a:	8a e2       	ldi	r24, 0x2A	; 42
    311c:	92 e0       	ldi	r25, 0x02	; 2
    311e:	07 c0       	rjmp	.+14     	; 0x312e <task_maze+0xb2>
			case 3:	if(!drive_instructions(drive_tile_10, DRIVE_TILE_4_L)) testvar ++; break;
    3120:	6c e0       	ldi	r22, 0x0C	; 12
    3122:	8e e1       	ldi	r24, 0x1E	; 30
    3124:	92 e0       	ldi	r25, 0x02	; 2
    3126:	03 c0       	rjmp	.+6      	; 0x312e <task_maze+0xb2>
			case 4:	if(!drive_instructions(drive_tile_11, DRIVE_TILE_5_L)) testvar ++; break;
    3128:	6c e0       	ldi	r22, 0x0C	; 12
    312a:	82 e1       	ldi	r24, 0x12	; 18
    312c:	92 e0       	ldi	r25, 0x02	; 2
			case 5:	if(!drive_instructions(drive_tile_12, DRIVE_TILE_6_L)) testvar ++; break;
    312e:	0e 94 22 34 	call	0x6844	; 0x6844 <drive_instructions>
    3132:	81 11       	cpse	r24, r1
    3134:	08 c0       	rjmp	.+16     	; 0x3146 <task_maze+0xca>
    3136:	80 91 46 05 	lds	r24, 0x0546
    313a:	8f 5f       	subi	r24, 0xFF	; 255
    313c:	80 93 46 05 	sts	0x0546, r24
    3140:	02 c0       	rjmp	.+4      	; 0x3146 <task_maze+0xca>
			default: testvar = 0; break;
    3142:	10 92 46 05 	sts	0x0546, r1
		}

	}

	return 0;
}
    3146:	80 e0       	ldi	r24, 0x00	; 0
    3148:	08 95       	ret

0000314a <__vector_17>:
uint32_t timer = 0; //Timer, resolution 1ms, continuisly incrementing in the scheduler ISR

////////////////////////////////////////////////////////////////////////////////

ISR(TIMER1_COMPA_vect) //1kHz
{
    314a:	1f 92       	push	r1
    314c:	0f 92       	push	r0
    314e:	0f b6       	in	r0, 0x3f	; 63
    3150:	0f 92       	push	r0
    3152:	11 24       	eor	r1, r1
    3154:	0b b6       	in	r0, 0x3b	; 59
    3156:	0f 92       	push	r0
    3158:	ef 92       	push	r14
    315a:	ff 92       	push	r15
    315c:	0f 93       	push	r16
    315e:	1f 93       	push	r17
    3160:	2f 93       	push	r18
    3162:	3f 93       	push	r19
    3164:	4f 93       	push	r20
    3166:	5f 93       	push	r21
    3168:	6f 93       	push	r22
    316a:	7f 93       	push	r23
    316c:	8f 93       	push	r24
    316e:	9f 93       	push	r25
    3170:	af 93       	push	r26
    3172:	bf 93       	push	r27
    3174:	cf 93       	push	r28
    3176:	df 93       	push	r29
    3178:	ef 93       	push	r30
    317a:	ff 93       	push	r31
	timer++;
    317c:	80 91 47 05 	lds	r24, 0x0547
    3180:	90 91 48 05 	lds	r25, 0x0548
    3184:	a0 91 49 05 	lds	r26, 0x0549
    3188:	b0 91 4a 05 	lds	r27, 0x054A
    318c:	01 96       	adiw	r24, 0x01	; 1
    318e:	a1 1d       	adc	r26, r1
    3190:	b1 1d       	adc	r27, r1
    3192:	80 93 47 05 	sts	0x0547, r24
    3196:	90 93 48 05 	sts	0x0548, r25
    319a:	a0 93 49 05 	sts	0x0549, r26
    319e:	b0 93 4a 05 	sts	0x054A, r27
    31a2:	0b ee       	ldi	r16, 0xEB	; 235
    31a4:	16 e0       	ldi	r17, 0x06	; 6
    31a6:	cc ee       	ldi	r28, 0xEC	; 236
    31a8:	d6 e0       	ldi	r29, 0x06	; 6

	for(uint8_t i = 0; i < TASKS_NUM; i++) 					// Heart of scheduler code
    31aa:	f1 2c       	mov	r15, r1
			&& (runningTasks[currentTask] > i)					// Task priority > current task priority
			&& (!tasks[i].running))											// Task not already running (no self-preemption)
		{
			cli();
			tasks[i].elapsedTime = 0;										// Reset time since last tick
			tasks[i].running = 1;												// Mark as running
    31ac:	ee 24       	eor	r14, r14
    31ae:	e3 94       	inc	r14
{
	timer++;

	for(uint8_t i = 0; i < TASKS_NUM; i++) 					// Heart of scheduler code
	{
		if((tasks[i].elapsedTime >= tasks[i].period)	// Task ready
    31b0:	2b 81       	ldd	r18, Y+3	; 0x03
    31b2:	3c 81       	ldd	r19, Y+4	; 0x04
    31b4:	89 81       	ldd	r24, Y+1	; 0x01
    31b6:	9a 81       	ldd	r25, Y+2	; 0x02
    31b8:	28 17       	cp	r18, r24
    31ba:	39 07       	cpc	r19, r25
    31bc:	80 f1       	brcs	.+96     	; 0x321e <__vector_17+0xd4>
			&& (runningTasks[currentTask] > i)					// Task priority > current task priority
    31be:	e0 91 68 05 	lds	r30, 0x0568
    31c2:	f0 e0       	ldi	r31, 0x00	; 0
    31c4:	e3 56       	subi	r30, 0x63	; 99
    31c6:	fd 4f       	sbci	r31, 0xFD	; 253
    31c8:	80 81       	ld	r24, Z
    31ca:	f8 16       	cp	r15, r24
    31cc:	40 f5       	brcc	.+80     	; 0x321e <__vector_17+0xd4>
			&& (!tasks[i].running))											// Task not already running (no self-preemption)
    31ce:	f8 01       	movw	r30, r16
    31d0:	80 81       	ld	r24, Z
    31d2:	81 11       	cpse	r24, r1
    31d4:	24 c0       	rjmp	.+72     	; 0x321e <__vector_17+0xd4>
		{
			cli();
    31d6:	f8 94       	cli
			tasks[i].elapsedTime = 0;										// Reset time since last tick
    31d8:	1c 82       	std	Y+4, r1	; 0x04
    31da:	1b 82       	std	Y+3, r1	; 0x03
			tasks[i].running = 1;												// Mark as running
    31dc:	f8 01       	movw	r30, r16
    31de:	e0 82       	st	Z, r14
			currentTask += 1;
    31e0:	e0 91 68 05 	lds	r30, 0x0568
    31e4:	ef 5f       	subi	r30, 0xFF	; 255
    31e6:	e0 93 68 05 	sts	0x0568, r30
			runningTasks[currentTask] = i;							// Add to runningTasks
    31ea:	f0 e0       	ldi	r31, 0x00	; 0
    31ec:	e3 56       	subi	r30, 0x63	; 99
    31ee:	fd 4f       	sbci	r31, 0xFD	; 253
    31f0:	f0 82       	st	Z, r15
			sei();
    31f2:	78 94       	sei

			tasks[i].state = tasks[i].task_fct(tasks[i].state);	// Execute tick
    31f4:	ed 81       	ldd	r30, Y+5	; 0x05
    31f6:	fe 81       	ldd	r31, Y+6	; 0x06
    31f8:	88 81       	ld	r24, Y
    31fa:	19 95       	eicall
    31fc:	88 83       	st	Y, r24

			cli();
    31fe:	f8 94       	cli
			tasks[i].running = 0;												// Mark as not running
    3200:	f8 01       	movw	r30, r16
    3202:	10 82       	st	Z, r1
			runningTasks[currentTask] = idleTask;				// Remove from runningTasks
    3204:	80 91 68 05 	lds	r24, 0x0568
    3208:	e8 2f       	mov	r30, r24
    320a:	f0 e0       	ldi	r31, 0x00	; 0
    320c:	e3 56       	subi	r30, 0x63	; 99
    320e:	fd 4f       	sbci	r31, 0xFD	; 253
    3210:	90 91 9c 02 	lds	r25, 0x029C
    3214:	90 83       	st	Z, r25
			currentTask -= 1;
    3216:	81 50       	subi	r24, 0x01	; 1
    3218:	80 93 68 05 	sts	0x0568, r24
			sei();
    321c:	78 94       	sei
		{
			displayvar[4] = i;
			tasks[i].period = 1000;
			tasks[i].running = 0;
		}*/
		tasks[i].elapsedTime += TASKPERIOD_GCD;
    321e:	8b 81       	ldd	r24, Y+3	; 0x03
    3220:	9c 81       	ldd	r25, Y+4	; 0x04
    3222:	01 96       	adiw	r24, 0x01	; 1
    3224:	9c 83       	std	Y+4, r25	; 0x04
    3226:	8b 83       	std	Y+3, r24	; 0x03

ISR(TIMER1_COMPA_vect) //1kHz
{
	timer++;

	for(uint8_t i = 0; i < TASKS_NUM; i++) 					// Heart of scheduler code
    3228:	f3 94       	inc	r15
    322a:	08 5f       	subi	r16, 0xF8	; 248
    322c:	1f 4f       	sbci	r17, 0xFF	; 255
    322e:	28 96       	adiw	r28, 0x08	; 8
    3230:	f6 e0       	ldi	r31, 0x06	; 6
    3232:	ff 12       	cpse	r15, r31
    3234:	bd cf       	rjmp	.-134    	; 0x31b0 <__vector_17+0x66>
			tasks[i].period = 1000;
			tasks[i].running = 0;
		}*/
		tasks[i].elapsedTime += TASKPERIOD_GCD;
	}
}
    3236:	ff 91       	pop	r31
    3238:	ef 91       	pop	r30
    323a:	df 91       	pop	r29
    323c:	cf 91       	pop	r28
    323e:	bf 91       	pop	r27
    3240:	af 91       	pop	r26
    3242:	9f 91       	pop	r25
    3244:	8f 91       	pop	r24
    3246:	7f 91       	pop	r23
    3248:	6f 91       	pop	r22
    324a:	5f 91       	pop	r21
    324c:	4f 91       	pop	r20
    324e:	3f 91       	pop	r19
    3250:	2f 91       	pop	r18
    3252:	1f 91       	pop	r17
    3254:	0f 91       	pop	r16
    3256:	ff 90       	pop	r15
    3258:	ef 90       	pop	r14
    325a:	0f 90       	pop	r0
    325c:	0b be       	out	0x3b, r0	; 59
    325e:	0f 90       	pop	r0
    3260:	0f be       	out	0x3f, r0	; 63
    3262:	0f 90       	pop	r0
    3264:	1f 90       	pop	r1
    3266:	18 95       	reti

00003268 <main>:

/*### Mainloop ###*/
int main(void)
{
    3268:	cf 93       	push	r28
    326a:	df 93       	push	r29
    326c:	1f 92       	push	r1
    326e:	cd b7       	in	r28, 0x3d	; 61
    3270:	de b7       	in	r29, 0x3e	; 62
	WDT_TRIGGERED(); //Watchdogreset?
    3272:	04 b6       	in	r0, 0x34	; 52
    3274:	03 fe       	sbrs	r0, 3
    3276:	03 c0       	rjmp	.+6      	; 0x327e <main+0x16>
    3278:	81 e0       	ldi	r24, 0x01	; 1
    327a:	80 93 64 05 	sts	0x0564, r24

	init_sys();
    327e:	0e 94 7b 5a 	call	0xb4f6	; 0xb4f6 <init_sys>
	init_pwm();
    3282:	0e 94 11 5b 	call	0xb622	; 0xb622 <init_pwm>
	init_timer();
    3286:	0e 94 3d 5b 	call	0xb67a	; 0xb67a <init_timer>
	dist_init();
    328a:	0e 94 85 36 	call	0x6d0a	; 0x6d0a <dist_init>
	uart1_init(UART_BAUD_SELECT(UART_UM6_BAUD_RATE,F_CPU)); //IMU
    328e:	88 e0       	ldi	r24, 0x08	; 8
    3290:	90 e0       	ldi	r25, 0x00	; 0
    3292:	0e 94 4e 5f 	call	0xbe9c	; 0xbe9c <uart1_init>
	uart_init(UART_BAUD_SELECT(UART_MCU_BAUD_RATE,F_CPU)); //Bluetooth
    3296:	88 e0       	ldi	r24, 0x08	; 8
    3298:	90 e0       	ldi	r25, 0x00	; 0
    329a:	0e 94 c0 5e 	call	0xbd80	; 0xbd80 <uart_init>
	init_display(1);
    329e:	81 e0       	ldi	r24, 0x01	; 1
    32a0:	0e 94 38 5c 	call	0xb870	; 0xb870 <init_display>
	//init_m2(); //Menu lib
	init_adc();
    32a4:	0e 94 00 5b 	call	0xb600	; 0xb600 <init_adc>
	init_i2c();
    32a8:	0e 94 67 5d 	call	0xbace	; 0xbace <init_i2c>
	init_srf10();
    32ac:	0e 94 94 3b 	call	0x7728	; 0x7728 <init_srf10>
	maze_init();
    32b0:	0e 94 24 50 	call	0xa048	; 0xa048 <maze_init>
	victim_init();
    32b4:	0e 94 ff 61 	call	0xc3fe	; 0xc3fe <victim_init>
    32b8:	e2 e5       	ldi	r30, 0x52	; 82
    32ba:	f7 e0       	ldi	r31, 0x07	; 7

	for(uint8_t i = 0; i < DISPLAYVARS; i++)
		displayvar[i] = DISPLAYVAR_UNUSED;
    32bc:	8f ef       	ldi	r24, 0xFF	; 255
    32be:	9f ef       	ldi	r25, 0xFF	; 255
    32c0:	a0 e0       	ldi	r26, 0x00	; 0
    32c2:	b0 e0       	ldi	r27, 0x00	; 0
    32c4:	81 93       	st	Z+, r24
    32c6:	91 93       	st	Z+, r25
    32c8:	a1 93       	st	Z+, r26
    32ca:	b1 93       	st	Z+, r27
	init_i2c();
	init_srf10();
	maze_init();
	victim_init();

	for(uint8_t i = 0; i < DISPLAYVARS; i++)
    32cc:	27 e0       	ldi	r18, 0x07	; 7
    32ce:	e2 37       	cpi	r30, 0x72	; 114
    32d0:	f2 07       	cpc	r31, r18
    32d2:	c1 f7       	brne	.-16     	; 0x32c4 <main+0x5c>
		displayvar[i] = DISPLAYVAR_UNUSED;

	mot.off = 1;
    32d4:	11 e0       	ldi	r17, 0x01	; 1
    32d6:	10 93 7f 16 	sts	0x167F, r17
	//The higher the task_i of the task is, the higher is the priority
	
	tasks[TASK_MAZE_ID].state = -1;
    32da:	2f ef       	ldi	r18, 0xFF	; 255
    32dc:	20 93 f4 06 	sts	0x06F4, r18
	tasks[TASK_MAZE_ID].period = TASK_PERIOD_MAZE;
    32e0:	85 e0       	ldi	r24, 0x05	; 5
    32e2:	90 e0       	ldi	r25, 0x00	; 0
    32e4:	90 93 f6 06 	sts	0x06F6, r25
    32e8:	80 93 f5 06 	sts	0x06F5, r24
	tasks[TASK_MAZE_ID].elapsedTime = 0;
    32ec:	10 92 f8 06 	sts	0x06F8, r1
    32f0:	10 92 f7 06 	sts	0x06F7, r1
	tasks[TASK_MAZE_ID].running = 0;
    32f4:	10 92 f3 06 	sts	0x06F3, r1
	tasks[TASK_MAZE_ID].task_fct = &task_maze;
    32f8:	8e e3       	ldi	r24, 0x3E	; 62
    32fa:	98 e1       	ldi	r25, 0x18	; 24
    32fc:	90 93 fa 06 	sts	0x06FA, r25
    3300:	80 93 f9 06 	sts	0x06F9, r24
	
	tasks[TASK_TIMER_ID].state = -1;
    3304:	20 93 ec 06 	sts	0x06EC, r18
	tasks[TASK_TIMER_ID].period = TASK_PERIOD_TIMER;
    3308:	81 e0       	ldi	r24, 0x01	; 1
    330a:	90 e0       	ldi	r25, 0x00	; 0
    330c:	90 93 ee 06 	sts	0x06EE, r25
    3310:	80 93 ed 06 	sts	0x06ED, r24
	tasks[TASK_TIMER_ID].elapsedTime = 0;
    3314:	10 92 f0 06 	sts	0x06F0, r1
    3318:	10 92 ef 06 	sts	0x06EF, r1
	tasks[TASK_TIMER_ID].running = 0;
    331c:	10 92 eb 06 	sts	0x06EB, r1
	tasks[TASK_TIMER_ID].task_fct = &task_timer;
    3320:	81 ea       	ldi	r24, 0xA1	; 161
    3322:	96 e1       	ldi	r25, 0x16	; 22
    3324:	90 93 f2 06 	sts	0x06F2, r25
    3328:	80 93 f1 06 	sts	0x06F1, r24

	tasks[TASK_SPEEDREG_ID].state = -1;
    332c:	20 93 04 07 	sts	0x0704, r18
	tasks[TASK_SPEEDREG_ID].period = TASK_PERIOD_SPEEDREG;
    3330:	89 e1       	ldi	r24, 0x19	; 25
    3332:	90 e0       	ldi	r25, 0x00	; 0
    3334:	90 93 06 07 	sts	0x0706, r25
    3338:	80 93 05 07 	sts	0x0705, r24
	tasks[TASK_SPEEDREG_ID].elapsedTime = 0;
    333c:	10 92 08 07 	sts	0x0708, r1
    3340:	10 92 07 07 	sts	0x0707, r1
	tasks[TASK_SPEEDREG_ID].running = 0;
    3344:	10 92 03 07 	sts	0x0703, r1
	tasks[TASK_SPEEDREG_ID].task_fct = &task_speedreg;
    3348:	8a e1       	ldi	r24, 0x1A	; 26
    334a:	98 e1       	ldi	r25, 0x18	; 24
    334c:	90 93 0a 07 	sts	0x070A, r25
    3350:	80 93 09 07 	sts	0x0709, r24
	
	tasks[TASK_SENSORS_ID].state = -1;
    3354:	20 93 fc 06 	sts	0x06FC, r18
	tasks[TASK_SENSORS_ID].period = TASK_PERIOD_SENSORS;
    3358:	8f e0       	ldi	r24, 0x0F	; 15
    335a:	90 e0       	ldi	r25, 0x00	; 0
    335c:	90 93 fe 06 	sts	0x06FE, r25
    3360:	80 93 fd 06 	sts	0x06FD, r24
	tasks[TASK_SENSORS_ID].elapsedTime = 0;
    3364:	10 92 00 07 	sts	0x0700, r1
    3368:	10 92 ff 06 	sts	0x06FF, r1
	tasks[TASK_SENSORS_ID].running = 0;
    336c:	10 92 fb 06 	sts	0x06FB, r1
	tasks[TASK_SENSORS_ID].task_fct = &task_sensors;
    3370:	8e e2       	ldi	r24, 0x2E	; 46
    3372:	98 e1       	ldi	r25, 0x18	; 24
    3374:	90 93 02 07 	sts	0x0702, r25
    3378:	80 93 01 07 	sts	0x0701, r24

	tasks[TASK_ANASENS_ID].state = -1;
    337c:	20 93 0c 07 	sts	0x070C, r18
	tasks[TASK_ANASENS_ID].period = TASK_PERIOD_ANASENS;
    3380:	82 e3       	ldi	r24, 0x32	; 50
    3382:	90 e0       	ldi	r25, 0x00	; 0
    3384:	90 93 0e 07 	sts	0x070E, r25
    3388:	80 93 0d 07 	sts	0x070D, r24
	tasks[TASK_ANASENS_ID].elapsedTime = 0;
    338c:	10 92 10 07 	sts	0x0710, r1
    3390:	10 92 0f 07 	sts	0x070F, r1
	tasks[TASK_ANASENS_ID].running = 0;
    3394:	10 92 0b 07 	sts	0x070B, r1
	tasks[TASK_ANASENS_ID].task_fct = &task_anasens;
    3398:	8a e3       	ldi	r24, 0x3A	; 58
    339a:	98 e1       	ldi	r25, 0x18	; 24
    339c:	90 93 12 07 	sts	0x0712, r25
    33a0:	80 93 11 07 	sts	0x0711, r24

	tasks[TASK_CAM_ID].state = -1;
    33a4:	20 93 14 07 	sts	0x0714, r18
	tasks[TASK_CAM_ID].period = 20;//TASK_PERIOD_CAM;
    33a8:	84 e1       	ldi	r24, 0x14	; 20
    33aa:	90 e0       	ldi	r25, 0x00	; 0
    33ac:	90 93 16 07 	sts	0x0716, r25
    33b0:	80 93 15 07 	sts	0x0715, r24
	tasks[TASK_CAM_ID].elapsedTime = 0;
    33b4:	10 92 18 07 	sts	0x0718, r1
    33b8:	10 92 17 07 	sts	0x0717, r1
	tasks[TASK_CAM_ID].running = 0;
    33bc:	10 92 13 07 	sts	0x0713, r1
	tasks[TASK_CAM_ID].task_fct = &task_cam;
    33c0:	88 e1       	ldi	r24, 0x18	; 24
    33c2:	98 e1       	ldi	r25, 0x18	; 24
    33c4:	90 93 1a 07 	sts	0x071A, r25
    33c8:	80 93 19 07 	sts	0x0719, r24
	
	if(get_incrOk())
    33cc:	0e 94 59 5b 	call	0xb6b2	; 0xb6b2 <get_incrOk>
    33d0:	88 23       	and	r24, r24
    33d2:	31 f0       	breq	.+12     	; 0x33e0 <main+0x178>
	{
		motor_activate(0); //Shut down motor driver
    33d4:	80 e0       	ldi	r24, 0x00	; 0
    33d6:	0e 94 76 5b 	call	0xb6ec	; 0xb6ec <motor_activate>
		setup = 1;
    33da:	10 93 54 05 	sts	0x0554, r17
    33de:	05 c0       	rjmp	.+10     	; 0x33ea <main+0x182>
	}
	else
	{
		motor_activate(1); //Activate motor driver
    33e0:	81 e0       	ldi	r24, 0x01	; 1
    33e2:	0e 94 76 5b 	call	0xb6ec	; 0xb6ec <motor_activate>
		setup = 0;
    33e6:	10 92 54 05 	sts	0x0554, r1
	}
	
	sei(); //Enable global interrupts. The Operating System and every task in it is running now and the cam already can regulate its initial aparture
    33ea:	78 94       	sei

	u8g_DrawStartUp();
    33ec:	30 d6       	rcall	.+3168   	; 0x404e <u8g_DrawStartUp>
    33ee:	80 91 53 05 	lds	r24, 0x0553
	
	if(debug > 0)
    33f2:	88 23       	and	r24, r24
    33f4:	19 f1       	breq	.+70     	; 0x343c <main+0x1d4>
    33f6:	88 e5       	ldi	r24, 0x58	; 88
	{
		bt_putStr_P(PSTR("\n\rRCJ 2014, V3.0\n\rteamohnename.de"));
    33f8:	92 e0       	ldi	r25, 0x02	; 2
    33fa:	e6 d5       	rcall	.+3020   	; 0x3fc8 <bt_putStr_P>
    33fc:	84 e4       	ldi	r24, 0x44	; 68
    33fe:	92 e0       	ldi	r25, 0x02	; 2
		bt_putStr_P(PSTR("\n\rDebugging grade: ")); bt_putLong(debug);
    3400:	e3 d5       	rcall	.+3014   	; 0x3fc8 <bt_putStr_P>
    3402:	60 91 53 05 	lds	r22, 0x0553
    3406:	70 e0       	ldi	r23, 0x00	; 0
    3408:	80 e0       	ldi	r24, 0x00	; 0
    340a:	90 e0       	ldi	r25, 0x00	; 0
    340c:	ef d5       	rcall	.+3038   	; 0x3fec <bt_putLong>
    340e:	81 e4       	ldi	r24, 0x41	; 65
    3410:	92 e0       	ldi	r25, 0x02	; 2
    3412:	da d5       	rcall	.+2996   	; 0x3fc8 <bt_putStr_P>
    3414:	60 91 47 05 	lds	r22, 0x0547
		bt_putStr_P(PSTR("\n\r")); bt_putLong(timer); bt_putStr_P(PSTR(": System initialized, ")); bt_putLong(TASKS_NUM); bt_putStr_P(PSTR(" running tasks."));
    3418:	70 91 48 05 	lds	r23, 0x0548
    341c:	80 91 49 05 	lds	r24, 0x0549
    3420:	90 91 4a 05 	lds	r25, 0x054A
    3424:	e3 d5       	rcall	.+3014   	; 0x3fec <bt_putLong>
    3426:	8a e2       	ldi	r24, 0x2A	; 42
    3428:	92 e0       	ldi	r25, 0x02	; 2
    342a:	ce d5       	rcall	.+2972   	; 0x3fc8 <bt_putStr_P>
    342c:	66 e0       	ldi	r22, 0x06	; 6
    342e:	70 e0       	ldi	r23, 0x00	; 0
    3430:	80 e0       	ldi	r24, 0x00	; 0
    3432:	90 e0       	ldi	r25, 0x00	; 0
    3434:	db d5       	rcall	.+2998   	; 0x3fec <bt_putLong>
    3436:	8a e1       	ldi	r24, 0x1A	; 26
    3438:	92 e0       	ldi	r25, 0x02	; 2
    343a:	c6 d5       	rcall	.+2956   	; 0x3fc8 <bt_putStr_P>
    343c:	80 91 64 05 	lds	r24, 0x0564
    3440:	88 23       	and	r24, r24
    3442:	e1 f0       	breq	.+56     	; 0x347c <main+0x214>
    3444:	80 91 53 05 	lds	r24, 0x0553
    3448:	88 23       	and	r24, r24
    344a:	79 f0       	breq	.+30     	; 0x346a <main+0x202>
    344c:	87 e1       	ldi	r24, 0x17	; 23
	}
	
	if(check_res)
    344e:	92 e0       	ldi	r25, 0x02	; 2
    3450:	bb d5       	rcall	.+2934   	; 0x3fc8 <bt_putStr_P>
    3452:	60 91 47 05 	lds	r22, 0x0547
	{
		if(debug > 0){bt_putStr_P(PSTR("\n\r")); bt_putLong(timer); bt_putStr(PSTR(": WARNING: RECOVERED AFTER AN UNEXPECTED SHUTDOWN!!!"));}
    3456:	70 91 48 05 	lds	r23, 0x0548
    345a:	80 91 49 05 	lds	r24, 0x0549
    345e:	90 91 4a 05 	lds	r25, 0x054A
    3462:	c4 d5       	rcall	.+2952   	; 0x3fec <bt_putLong>
    3464:	82 ee       	ldi	r24, 0xE2	; 226
    3466:	91 e0       	ldi	r25, 0x01	; 1
    3468:	a0 d5       	rcall	.+2880   	; 0x3faa <bt_putStr>
    346a:	8f ef       	ldi	r24, 0xFF	; 255
    346c:	93 e2       	ldi	r25, 0x23	; 35
    346e:	e4 ef       	ldi	r30, 0xF4	; 244
    3470:	81 50       	subi	r24, 0x01	; 1
    3472:	90 40       	sbci	r25, 0x00	; 0
    3474:	e0 40       	sbci	r30, 0x00	; 0
    3476:	e1 f7       	brne	.-8      	; 0x3470 <main+0x208>
    3478:	00 c0       	rjmp	.+0      	; 0x347a <main+0x212>
    347a:	00 00       	nop
    347c:	8e e1       	ldi	r24, 0x1E	; 30
    347e:	0e 94 5d 5b 	call	0xb6ba	; 0xb6ba <servo_setPos>
    3482:	00 e2       	ldi	r16, 0x20	; 32
    3484:	ff 24       	eor	r15, r15
    3486:	f3 94       	inc	r15
    3488:	11 e0       	ldi	r17, 0x01	; 1
    348a:	e4 e1       	ldi	r30, 0x14	; 20
    348c:	ee 2e       	mov	r14, r30
    348e:	f2 e0       	ldi	r31, 0x02	; 2
    3490:	df 2e       	mov	r13, r31
    3492:	ae e1       	ldi	r26, 0x1E	; 30
	//wdt_enable(WDTO_8S); //activate watchdog

	uint8_t doonce = 0;


	servo_setPos(30);
    3494:	ca 2e       	mov	r12, r26
    3496:	ba e0       	ldi	r27, 0x0A	; 10
    3498:	bb 2e       	mov	r11, r27

	while(1)
    {
		wdt_reset();

		TOGGLE_MAIN_LED(); //Toggle LED on the RNmega Board
    349a:	44 eb       	ldi	r20, 0xB4	; 180
					maze_solve_state_path = DRIVE_READY;
					routeRequest = RR_WAIT;
					locRequest = LR_WAIT;

				hold_t1 = 0;
				mot.off ^= 1;
    349c:	a4 2e       	mov	r10, r20
    349e:	52 e8       	ldi	r21, 0x82	; 130
    34a0:	95 2e       	mov	r9, r21
				timer_entpr_tast = TIMER_ENTPR_TAST;
    34a2:	67 e3       	ldi	r22, 0x37	; 55
    34a4:	86 2e       	mov	r8, r22
		////////////////////////////////////////////////////////////////////////////
		if(get_t1())
		{
			if((timer_get_tast == 0) && (timer_entpr_tast == 0) && (!hold_t1))
			{
				timer_get_tast = TIMER_GET_TAST;
    34a6:	7f e0       	ldi	r23, 0x0F	; 15
    34a8:	77 2e       	mov	r7, r23
			led_fault = 0;
		
		if(fatal_err)
			led_top = LED_TOP_FAT_ERR;
		else
			led_top = LED_TOP_NORMAL;
    34aa:	a8 95       	wdr
    34ac:	8b b1       	in	r24, 0x0b	; 11
			led_fault = 180;
		else
			led_fault = 0;
		
		if(fatal_err)
			led_top = LED_TOP_FAT_ERR;
    34ae:	80 27       	eor	r24, r16
    34b0:	8b b9       	out	0x0b, r24	; 11
		else if(check_mlx != 0)
			led_fault = 55;
		else if(check_srf != 0)
			led_fault = 130;
		else if(check_um6 != 0)
			led_fault = 180;
    34b2:	0e 94 a4 3b 	call	0x7748	; 0x7748 <maze_solveRoutes>
		if(check_res || fatal_err)	//Flashing of the Info LED when there is an error
			led_fault = 1;
		else if(check_mlx != 0)
			led_fault = 55;
		else if(check_srf != 0)
			led_fault = 130;
    34b6:	0e 94 fc 41 	call	0x83f8	; 0x83f8 <maze_localize>
		////////////////////Sensorcoordination//////////////////////////////////////

		if(check_res || fatal_err)	//Flashing of the Info LED when there is an error
			led_fault = 1;
		else if(check_mlx != 0)
			led_fault = 55;
    34ba:	0e 94 56 5b 	call	0xb6ac	; 0xb6ac <get_t1>
		else	debug_err_sendOneTime &= ~(1<<2);
		
		//Batterie/Akku
		if(batt_raw > 0)
		{
			batt_mV = (batt_raw*15)-300;
    34be:	88 23       	and	r24, r24
    34c0:	39 f1       	breq	.+78     	; 0x3510 <main+0x2a8>

	servo_setPos(30);

	while(1)
    {
		wdt_reset();
    34c2:	80 91 4d 05 	lds	r24, 0x054D

		TOGGLE_MAIN_LED(); //Toggle LED on the RNmega Board
    34c6:	81 11       	cpse	r24, r1
    34c8:	27 c0       	rjmp	.+78     	; 0x3518 <main+0x2b0>

		////////////////////////////////////////////////////////////////////////////

		maze_solveRoutes(); //Has to be called to calculate routes in main-loop, when nessesary (because it needs up to 2s)
    34ca:	90 91 51 05 	lds	r25, 0x0551
		maze_localize(); //"
    34ce:	80 91 55 05 	lds	r24, 0x0555

		////////////////////////////////////////////////////////////////////////////
		if(get_t1())
    34d2:	91 11       	cpse	r25, r1
    34d4:	07 c0       	rjmp	.+14     	; 0x34e4 <main+0x27c>
    34d6:	81 11       	cpse	r24, r1
    34d8:	05 c0       	rjmp	.+10     	; 0x34e4 <main+0x27c>
		{
			if((timer_get_tast == 0) && (timer_entpr_tast == 0) && (!hold_t1))
    34da:	d0 92 4d 05 	sts	0x054D, r13
    34de:	10 93 55 05 	sts	0x0555, r17
    34e2:	1a c0       	rjmp	.+52     	; 0x3518 <main+0x2b0>
    34e4:	88 23       	and	r24, r24
    34e6:	c1 f0       	breq	.+48     	; 0x3518 <main+0x2b0>
    34e8:	0e 94 c3 34 	call	0x6986	; 0x6986 <drive_reset>
    34ec:	0e 94 c2 47 	call	0x8f84	; 0x8f84 <maze_clearDepthsearch>
    34f0:	10 92 cd 05 	sts	0x05CD, r1
			{
				timer_get_tast = TIMER_GET_TAST;
    34f4:	10 92 c6 05 	sts	0x05C6, r1
				hold_t1 = 1;
    34f8:	10 92 c4 05 	sts	0x05C4, r1
			}
			else if((timer_get_tast == 0) && hold_t1)
    34fc:	10 92 55 05 	sts	0x0555, r1
			{
				drive_reset(); //Fahrfunktionen zurcksetzen
    3500:	80 91 7f 16 	lds	r24, 0x167F
				maze_clearDepthsearch();
    3504:	8f 25       	eor	r24, r15
    3506:	80 93 7f 16 	sts	0x167F, r24
					maze_solve_state_path = DRIVE_READY;
    350a:	e0 92 51 05 	sts	0x0551, r14
					routeRequest = RR_WAIT;
    350e:	04 c0       	rjmp	.+8      	; 0x3518 <main+0x2b0>
					locRequest = LR_WAIT;
    3510:	10 92 4d 05 	sts	0x054D, r1

				hold_t1 = 0;
    3514:	10 92 55 05 	sts	0x0555, r1
				mot.off ^= 1;
    3518:	90 91 64 05 	lds	r25, 0x0564
    351c:	80 91 63 05 	lds	r24, 0x0563
    3520:	91 11       	cpse	r25, r1
				timer_entpr_tast = TIMER_ENTPR_TAST;
    3522:	02 c0       	rjmp	.+4      	; 0x3528 <main+0x2c0>
    3524:	88 23       	and	r24, r24
    3526:	39 f0       	breq	.+14     	; 0x3536 <main+0x2ce>
			}
		}
		else
		{
			timer_get_tast = 0;
    3528:	10 93 62 05 	sts	0x0562, r17
			hold_t1 = 0;
    352c:	88 23       	and	r24, r24
    352e:	d1 f0       	breq	.+52     	; 0x3564 <main+0x2fc>
		}

		////////////////////Sensorcoordination//////////////////////////////////////

		if(check_res || fatal_err)	//Flashing of the Info LED when there is an error
    3530:	b0 92 61 05 	sts	0x0561, r11
    3534:	19 c0       	rjmp	.+50     	; 0x3568 <main+0x300>
    3536:	80 91 67 05 	lds	r24, 0x0567
    353a:	88 23       	and	r24, r24
    353c:	19 f0       	breq	.+6      	; 0x3544 <main+0x2dc>
    353e:	80 92 62 05 	sts	0x0562, r8
			led_fault = 1;
    3542:	10 c0       	rjmp	.+32     	; 0x3564 <main+0x2fc>
		else if(check_um6 != 0)
			led_fault = 180;
		else
			led_fault = 0;
		
		if(fatal_err)
    3544:	80 91 66 05 	lds	r24, 0x0566
			led_top = LED_TOP_FAT_ERR;
    3548:	88 23       	and	r24, r24
    354a:	19 f0       	breq	.+6      	; 0x3552 <main+0x2ea>
    354c:	90 92 62 05 	sts	0x0562, r9

		////////////////////Sensorcoordination//////////////////////////////////////

		if(check_res || fatal_err)	//Flashing of the Info LED when there is an error
			led_fault = 1;
		else if(check_mlx != 0)
    3550:	09 c0       	rjmp	.+18     	; 0x3564 <main+0x2fc>
    3552:	80 91 65 05 	lds	r24, 0x0565
			led_fault = 55;
    3556:	88 23       	and	r24, r24
    3558:	19 f0       	breq	.+6      	; 0x3560 <main+0x2f8>
    355a:	a0 92 62 05 	sts	0x0562, r10
		else if(check_srf != 0)
    355e:	02 c0       	rjmp	.+4      	; 0x3564 <main+0x2fc>
    3560:	10 92 62 05 	sts	0x0562, r1
			led_fault = 130;
    3564:	c0 92 61 05 	sts	0x0561, r12
    3568:	80 91 52 05 	lds	r24, 0x0552
		else if(check_um6 != 0)
    356c:	99 23       	and	r25, r25
    356e:	c9 f0       	breq	.+50     	; 0x35a2 <main+0x33a>
    3570:	80 fd       	sbrc	r24, 0
			led_fault = 180;
    3572:	1a c0       	rjmp	.+52     	; 0x35a8 <main+0x340>
    3574:	80 91 53 05 	lds	r24, 0x0553
		else
			led_fault = 0;
    3578:	82 30       	cpi	r24, 0x02	; 2
    357a:	78 f0       	brcs	.+30     	; 0x359a <main+0x332>
		
		if(fatal_err)
			led_top = LED_TOP_FAT_ERR;
		else
			led_top = LED_TOP_NORMAL;
    357c:	8f ed       	ldi	r24, 0xDF	; 223
    357e:	91 e0       	ldi	r25, 0x01	; 1
    3580:	23 d5       	rcall	.+2630   	; 0x3fc8 <bt_putStr_P>
    3582:	60 91 47 05 	lds	r22, 0x0547
			
		if(check_res)
    3586:	70 91 48 05 	lds	r23, 0x0548
		{
			if(!(debug_err_sendOneTime & (1<<0)))
    358a:	80 91 49 05 	lds	r24, 0x0549
			{
				if(debug > 1){bt_putStr_P(PSTR("\n\r")); bt_putLong(timer); bt_putStr_P(PSTR(": ERROR: RESET"));}
    358e:	90 91 4a 05 	lds	r25, 0x054A
    3592:	2c d5       	rcall	.+2648   	; 0x3fec <bt_putLong>
    3594:	80 ed       	ldi	r24, 0xD0	; 208
    3596:	91 e0       	ldi	r25, 0x01	; 1
    3598:	17 d5       	rcall	.+2606   	; 0x3fc8 <bt_putStr_P>
    359a:	80 91 52 05 	lds	r24, 0x0552
    359e:	81 60       	ori	r24, 0x01	; 1
    35a0:	01 c0       	rjmp	.+2      	; 0x35a4 <main+0x33c>
    35a2:	8e 7f       	andi	r24, 0xFE	; 254
    35a4:	80 93 52 05 	sts	0x0552, r24
    35a8:	90 91 67 05 	lds	r25, 0x0567
    35ac:	80 91 52 05 	lds	r24, 0x0552
    35b0:	99 23       	and	r25, r25
    35b2:	c9 f0       	breq	.+50     	; 0x35e6 <main+0x37e>
    35b4:	81 fd       	sbrc	r24, 1
    35b6:	1a c0       	rjmp	.+52     	; 0x35ec <main+0x384>
				debug_err_sendOneTime |= (1<<0);
    35b8:	80 91 53 05 	lds	r24, 0x0553
    35bc:	82 30       	cpi	r24, 0x02	; 2
    35be:	78 f0       	brcs	.+30     	; 0x35de <main+0x376>
			}
		}
		else	debug_err_sendOneTime &= ~(1<<0);
    35c0:	8d ec       	ldi	r24, 0xCD	; 205
    35c2:	91 e0       	ldi	r25, 0x01	; 1
    35c4:	01 d5       	rcall	.+2562   	; 0x3fc8 <bt_putStr_P>
		
		if(check_mlx != 0)
    35c6:	60 91 47 05 	lds	r22, 0x0547
    35ca:	70 91 48 05 	lds	r23, 0x0548
    35ce:	80 91 49 05 	lds	r24, 0x0549
		{
			if(!(debug_err_sendOneTime & (1<<1)))
    35d2:	90 91 4a 05 	lds	r25, 0x054A
			{
				if(debug > 1){bt_putStr_P(PSTR("\n\r")); bt_putLong(timer); bt_putStr_P(PSTR(": ERROR: Melexis MLX90614 Temperature sensors"));}
    35d6:	0a d5       	rcall	.+2580   	; 0x3fec <bt_putLong>
    35d8:	8f e9       	ldi	r24, 0x9F	; 159
    35da:	91 e0       	ldi	r25, 0x01	; 1
    35dc:	f5 d4       	rcall	.+2538   	; 0x3fc8 <bt_putStr_P>
    35de:	80 91 52 05 	lds	r24, 0x0552
    35e2:	82 60       	ori	r24, 0x02	; 2
    35e4:	01 c0       	rjmp	.+2      	; 0x35e8 <main+0x380>
    35e6:	8d 7f       	andi	r24, 0xFD	; 253
    35e8:	80 93 52 05 	sts	0x0552, r24
    35ec:	90 91 65 05 	lds	r25, 0x0565
    35f0:	80 91 52 05 	lds	r24, 0x0552
    35f4:	99 23       	and	r25, r25
    35f6:	c9 f0       	breq	.+50     	; 0x362a <main+0x3c2>
    35f8:	82 fd       	sbrc	r24, 2
    35fa:	1a c0       	rjmp	.+52     	; 0x3630 <main+0x3c8>
    35fc:	80 91 53 05 	lds	r24, 0x0553
    3600:	82 30       	cpi	r24, 0x02	; 2
				debug_err_sendOneTime |= (1<<1);
    3602:	78 f0       	brcs	.+30     	; 0x3622 <main+0x3ba>
    3604:	8c e9       	ldi	r24, 0x9C	; 156
    3606:	91 e0       	ldi	r25, 0x01	; 1
    3608:	df d4       	rcall	.+2494   	; 0x3fc8 <bt_putStr_P>
			}
		}
		else	debug_err_sendOneTime &= ~(1<<1);
    360a:	60 91 47 05 	lds	r22, 0x0547
    360e:	70 91 48 05 	lds	r23, 0x0548
		
		if(check_um6 != 0)
    3612:	80 91 49 05 	lds	r24, 0x0549
    3616:	90 91 4a 05 	lds	r25, 0x054A
    361a:	e8 d4       	rcall	.+2512   	; 0x3fec <bt_putLong>
		{
			if(!(debug_err_sendOneTime & (1<<2)))
    361c:	80 e8       	ldi	r24, 0x80	; 128
    361e:	91 e0       	ldi	r25, 0x01	; 1
			{
				if(debug > 1){bt_putStr_P(PSTR("\n\r")); bt_putLong(timer); bt_putStr_P(PSTR(": ERROR: CHRobotics UM6 IMU"));}
    3620:	d3 d4       	rcall	.+2470   	; 0x3fc8 <bt_putStr_P>
    3622:	80 91 52 05 	lds	r24, 0x0552
    3626:	84 60       	ori	r24, 0x04	; 4
    3628:	01 c0       	rjmp	.+2      	; 0x362c <main+0x3c4>
    362a:	8b 7f       	andi	r24, 0xFB	; 251
    362c:	80 93 52 05 	sts	0x0552, r24
    3630:	80 91 fc 07 	lds	r24, 0x07FC
    3634:	90 91 fd 07 	lds	r25, 0x07FD
    3638:	18 16       	cp	r1, r24
    363a:	19 06       	cpc	r1, r25
    363c:	84 f5       	brge	.+96     	; 0x369e <main+0x436>
    363e:	78 9e       	mul	r7, r24
    3640:	b0 01       	movw	r22, r0
    3642:	79 9e       	mul	r7, r25
    3644:	70 0d       	add	r23, r0
    3646:	11 24       	eor	r1, r1
    3648:	6c 52       	subi	r22, 0x2C	; 44
    364a:	71 40       	sbci	r23, 0x01	; 1
				debug_err_sendOneTime |= (1<<2);
    364c:	70 93 5f 05 	sts	0x055F, r23
    3650:	60 93 5e 05 	sts	0x055E, r22
			}
		}
		else	debug_err_sendOneTime &= ~(1<<2);
    3654:	80 91 99 02 	lds	r24, 0x0299
    3658:	90 91 9a 02 	lds	r25, 0x029A
		
		//Batterie/Akku
		if(batt_raw > 0)
    365c:	68 17       	cp	r22, r24
    365e:	79 07       	cpc	r23, r25
    3660:	c0 f4       	brcc	.+48     	; 0x3692 <main+0x42a>
    3662:	70 93 9a 02 	sts	0x029A, r23
    3666:	60 93 99 02 	sts	0x0299, r22
		{
			batt_mV = (batt_raw*15)-300;
    366a:	80 e0       	ldi	r24, 0x00	; 0
    366c:	90 e0       	ldi	r25, 0x00	; 0
    366e:	0e 94 16 6a 	call	0xd42c	; 0xd42c <__floatunsisf>
    3672:	20 e5       	ldi	r18, 0x50	; 80
    3674:	3d e8       	ldi	r19, 0x8D	; 141
    3676:	47 e1       	ldi	r20, 0x17	; 23
    3678:	5d e3       	ldi	r21, 0x3D	; 61
    367a:	0e 94 cc 6a 	call	0xd598	; 0xd598 <__mulsf3>

			if(batt_mV < batt_mV_old)
    367e:	20 e0       	ldi	r18, 0x00	; 0
    3680:	30 e8       	ldi	r19, 0x80	; 128
    3682:	45 eb       	ldi	r20, 0xB5	; 181
    3684:	53 e4       	ldi	r21, 0x43	; 67
    3686:	0e 94 14 69 	call	0xd228	; 0xd228 <__subsf3>
    368a:	0e 94 e5 69 	call	0xd3ca	; 0xd3ca <__fixsfsi>
			{
				batt_mV_old = batt_mV;
    368e:	60 93 60 05 	sts	0x0560, r22
    3692:	80 91 60 05 	lds	r24, 0x0560
				batt_percent = (0.037*batt_mV) - 363;
    3696:	84 31       	cpi	r24, 0x14	; 20
    3698:	14 f4       	brge	.+4      	; 0x369e <main+0x436>
    369a:	80 93 9b 02 	sts	0x029B, r24
    369e:	60 91 62 05 	lds	r22, 0x0562
    36a2:	70 e0       	ldi	r23, 0x00	; 0
    36a4:	80 91 9b 02 	lds	r24, 0x029B
    36a8:	40 91 61 05 	lds	r20, 0x0561
    36ac:	90 e0       	ldi	r25, 0x00	; 0
    36ae:	0e 94 9b 35 	call	0x6b36	; 0x6b36 <led_rgb>
    36b2:	80 91 5d 05 	lds	r24, 0x055D
    36b6:	81 11       	cpse	r24, r1
    36b8:	05 c0       	rjmp	.+10     	; 0x36c4 <main+0x45c>
    36ba:	8b e1       	ldi	r24, 0x1B	; 27
			}
			if(batt_percent < 20) //Batterie
    36bc:	97 e0       	ldi	r25, 0x07	; 7
    36be:	3b d3       	rcall	.+1654   	; 0x3d36 <u8g_FirstPage>
    36c0:	10 93 5d 05 	sts	0x055D, r17
				led_heartbeatColor = batt_percent;
    36c4:	f7 d5       	rcall	.+3054   	; 0x42b4 <u8g_DrawInfo>
    36c6:	80 91 54 05 	lds	r24, 0x0554
		}

		////////////////////////////////////////////////////////////////////////////
		//LED heartbeat

		led_rgb(led_heartbeatColor, led_fault, led_top);
    36ca:	81 30       	cpi	r24, 0x01	; 1
    36cc:	19 f4       	brne	.+6      	; 0x36d4 <main+0x46c>
    36ce:	0e 94 90 23 	call	0x4720	; 0x4720 <u8g_DrawSetUp>
    36d2:	41 c0       	rjmp	.+130    	; 0x3756 <main+0x4ee>
    36d4:	82 30       	cpi	r24, 0x02	; 2
    36d6:	19 f4       	brne	.+6      	; 0x36de <main+0x476>
    36d8:	0e 94 bb 24 	call	0x4976	; 0x4976 <u8g_DrawView>
		//displayvar[5] = (victimBuf[LEFT].value[0]-victimBuf[LEFT].lowest);


		//setup = 1;

		if(!u8g_stateMachine)
    36dc:	3c c0       	rjmp	.+120    	; 0x3756 <main+0x4ee>
    36de:	83 30       	cpi	r24, 0x03	; 3
    36e0:	19 f4       	brne	.+6      	; 0x36e8 <main+0x480>
    36e2:	0e 94 a0 26 	call	0x4d40	; 0x4d40 <u8g_DrawCamRaw>
		{
			u8g_FirstPage(&u8g);
    36e6:	37 c0       	rjmp	.+110    	; 0x3756 <main+0x4ee>
    36e8:	84 30       	cpi	r24, 0x04	; 4
    36ea:	19 f4       	brne	.+6      	; 0x36f2 <main+0x48a>
			u8g_stateMachine = 1;
    36ec:	0e 94 92 28 	call	0x5124	; 0x5124 <u8g_DrawVictim>
		}
		//////////////Displayausgaben////////////////

		u8g_DrawInfo(); //Message Line (upper 8 lines of lcd) in display.c!
    36f0:	32 c0       	rjmp	.+100    	; 0x3756 <main+0x4ee>
    36f2:	0e 94 bf 42 	call	0x857e	; 0x857e <u8g_DrawMaze>

		if(setup == 1)
    36f6:	29 e3       	ldi	r18, 0x39	; 57
    36f8:	47 e0       	ldi	r20, 0x07	; 7
    36fa:	67 e5       	ldi	r22, 0x57	; 87
			u8g_DrawSetUp();
    36fc:	8b e1       	ldi	r24, 0x1B	; 27
    36fe:	97 e0       	ldi	r25, 0x07	; 7
    3700:	da d3       	rcall	.+1972   	; 0x3eb6 <u8g_DrawVLine>
			//m2_drawSetup();
		else if(setup == 2)
    3702:	67 e3       	ldi	r22, 0x37	; 55
    3704:	7e e0       	ldi	r23, 0x0E	; 14
			u8g_DrawView();
    3706:	8b e1       	ldi	r24, 0x1B	; 27
    3708:	97 e0       	ldi	r25, 0x07	; 7
    370a:	d6 d1       	rcall	.+940    	; 0x3ab8 <u8g_SetFont>
		else if(setup == 3)
    370c:	0e 94 6e 5a 	call	0xb4dc	; 0xb4dc <get_mem_unused>
			u8g_DrawCamRaw();
    3710:	a0 e0       	ldi	r26, 0x00	; 0
    3712:	b0 e0       	ldi	r27, 0x00	; 0
    3714:	80 93 6e 07 	sts	0x076E, r24
		else if(setup == 4)
    3718:	90 93 6f 07 	sts	0x076F, r25
			u8g_DrawVictim();
    371c:	a0 93 70 07 	sts	0x0770, r26
		else
		{
			u8g_DrawMaze(); //Everything about the maze (in maze.c!)
    3720:	b0 93 71 07 	sts	0x0771, r27
			//u8g_DrawPixy();
			//u8g_DrawTempScan(LEFT);
			//u8g_DrawFrontScan();

			u8g_DrawVLine(&u8g, 87, 7, 57); //vertical line
    3724:	32 e5       	ldi	r19, 0x52	; 82
    3726:	43 2e       	mov	r4, r19
    3728:	37 e0       	ldi	r19, 0x07	; 7
    372a:	53 2e       	mov	r5, r19
    372c:	9f e0       	ldi	r25, 0x0F	; 15
    372e:	f2 01       	movw	r30, r4
    3730:	21 91       	ld	r18, Z+
			//          /////////       //
			//          //Info //   X   //
			//          //Karte//       //
			//////////////////////////////

			u8g_SetFont(&u8g, u8g_font_5x7);
    3732:	31 91       	ld	r19, Z+
    3734:	41 91       	ld	r20, Z+
    3736:	51 91       	ld	r21, Z+
    3738:	2f 01       	movw	r4, r30
    373a:	2f 3f       	cpi	r18, 0xFF	; 255
    373c:	ff ef       	ldi	r31, 0xFF	; 255

			displayvar[7] = get_mem_unused();
    373e:	3f 07       	cpc	r19, r31
    3740:	41 05       	cpc	r20, r1
    3742:	51 05       	cpc	r21, r1
    3744:	29 f0       	breq	.+10     	; 0x3750 <main+0x4e8>
    3746:	69 2f       	mov	r22, r25
    3748:	8a e5       	ldi	r24, 0x5A	; 90
    374a:	99 83       	std	Y+1, r25	; 0x01
    374c:	63 d4       	rcall	.+2246   	; 0x4014 <u8g_DrawLong>
    374e:	99 81       	ldd	r25, Y+1	; 0x01
    3750:	99 5f       	subi	r25, 0xF9	; 249
    3752:	9e 34       	cpi	r25, 0x4E	; 78
    3754:	61 f7       	brne	.-40     	; 0x372e <main+0x4c6>
    3756:	8b e1       	ldi	r24, 0x1B	; 27
    3758:	97 e0       	ldi	r25, 0x07	; 7
    375a:	f1 d2       	rcall	.+1506   	; 0x3d3e <u8g_NextPage>
    375c:	81 11       	cpse	r24, r1
    375e:	a5 ce       	rjmp	.-694    	; 0x34aa <main+0x242>

			for(uint8_t i = 0; i <= DISPLAYVARS; i++)
				if(displayvar[i] != 0xffff)
    3760:	10 92 5d 05 	sts	0x055D, r1
    3764:	9a ce       	rjmp	.-716    	; 0x349a <main+0x232>

00003766 <u8g_font_get_word>:

static uint16_t u8g_font_get_word(const u8g_fntpgm_uint8_t *font, uint8_t offset) U8G_NOINLINE; 
static uint16_t u8g_font_get_word(const u8g_fntpgm_uint8_t *font, uint8_t offset)
{
    uint16_t pos;
    font += offset;
    3766:	fc 01       	movw	r30, r24
    3768:	e6 0f       	add	r30, r22
    376a:	f1 1d       	adc	r31, r1
    pos = u8g_pgm_read( (u8g_pgm_uint8_t *)font );
    376c:	84 91       	lpm	r24, Z
    376e:	90 e0       	ldi	r25, 0x00	; 0
    font++;
    pos <<= 8;
    3770:	98 2f       	mov	r25, r24
    3772:	88 27       	eor	r24, r24
static uint16_t u8g_font_get_word(const u8g_fntpgm_uint8_t *font, uint8_t offset)
{
    uint16_t pos;
    font += offset;
    pos = u8g_pgm_read( (u8g_pgm_uint8_t *)font );
    font++;
    3774:	31 96       	adiw	r30, 0x01	; 1
    pos <<= 8;
    pos += u8g_pgm_read( (u8g_pgm_uint8_t *)font);
    3776:	e4 91       	lpm	r30, Z
    return pos;
}
    3778:	8e 0f       	add	r24, r30
    377a:	91 1d       	adc	r25, r1
    377c:	08 95       	ret

0000377e <u8g_font_GetFormat>:
/* removed NOINLINE, because it leads to smaller code, might also be faster */
//static uint8_t u8g_font_get_byte(const u8g_fntpgm_uint8_t *font, uint8_t offset) U8G_NOINLINE;
static uint8_t u8g_font_get_byte(const u8g_fntpgm_uint8_t *font, uint8_t offset)
{
  font += offset;
  return u8g_pgm_read( (u8g_pgm_uint8_t *)font );  
    377e:	fc 01       	movw	r30, r24
    3780:	84 91       	lpm	r24, Z

static uint8_t u8g_font_GetFormat(const u8g_fntpgm_uint8_t *font) U8G_NOINLINE;
static uint8_t u8g_font_GetFormat(const u8g_fntpgm_uint8_t *font)
{
  return u8g_font_get_byte(font, 0);
}
    3782:	08 95       	ret

00003784 <u8g_font_GetFontGlyphStructureSize>:

static uint8_t u8g_font_GetFontGlyphStructureSize(const u8g_fntpgm_uint8_t *font) U8G_NOINLINE;
static uint8_t u8g_font_GetFontGlyphStructureSize(const u8g_fntpgm_uint8_t *font)
{
  switch(u8g_font_GetFormat(font))
    3784:	fc df       	rcall	.-8      	; 0x377e <u8g_font_GetFormat>
    3786:	88 23       	and	r24, r24
    3788:	11 f0       	breq	.+4      	; 0x378e <u8g_font_GetFontGlyphStructureSize+0xa>
    378a:	82 30       	cpi	r24, 0x02	; 2
    378c:	11 f4       	brne	.+4      	; 0x3792 <u8g_font_GetFontGlyphStructureSize+0xe>
    378e:	86 e0       	ldi	r24, 0x06	; 6
  {
    case 0: return 6;
    3790:	08 95       	ret
    3792:	83 e0       	ldi	r24, 0x03	; 3
    case 1: return 3;
    3794:	08 95       	ret

00003796 <u8g_font_calc_vref_font>:
/* callback procedures to correct the y position */

u8g_uint_t u8g_font_calc_vref_font(u8g_t *u8g)
{
  return 0;
}
    3796:	80 e0       	ldi	r24, 0x00	; 0
    3798:	08 95       	ret

0000379a <u8g_font_GetEncoding65Pos>:
}

uint16_t u8g_font_GetEncoding65Pos(const void *font) U8G_NOINLINE;
uint16_t u8g_font_GetEncoding65Pos(const void *font)
{
    return u8g_font_get_word(font, 6);
    379a:	66 e0       	ldi	r22, 0x06	; 6
    379c:	e4 cf       	rjmp	.-56     	; 0x3766 <u8g_font_get_word>

0000379e <u8g_font_GetEncoding97Pos>:
}

uint16_t u8g_font_GetEncoding97Pos(const void *font) U8G_NOINLINE;
uint16_t u8g_font_GetEncoding97Pos(const void *font)
{
    return u8g_font_get_word(font, 8);
    379e:	68 e0       	ldi	r22, 0x08	; 8
    37a0:	e2 cf       	rjmp	.-60     	; 0x3766 <u8g_font_get_word>

000037a2 <u8g_font_GetFontStartEncoding>:

/* removed NOINLINE, because it leads to smaller code, might also be faster */
//static uint8_t u8g_font_get_byte(const u8g_fntpgm_uint8_t *font, uint8_t offset) U8G_NOINLINE;
static uint8_t u8g_font_get_byte(const u8g_fntpgm_uint8_t *font, uint8_t offset)
{
  font += offset;
    37a2:	0a 96       	adiw	r24, 0x0a	; 10
  return u8g_pgm_read( (u8g_pgm_uint8_t *)font );  
    37a4:	fc 01       	movw	r30, r24
    37a6:	84 91       	lpm	r24, Z
}

uint8_t u8g_font_GetFontStartEncoding(const void *font)
{
  return u8g_font_get_byte(font, 10);
}
    37a8:	08 95       	ret

000037aa <u8g_font_GetFontEndEncoding>:

/* removed NOINLINE, because it leads to smaller code, might also be faster */
//static uint8_t u8g_font_get_byte(const u8g_fntpgm_uint8_t *font, uint8_t offset) U8G_NOINLINE;
static uint8_t u8g_font_get_byte(const u8g_fntpgm_uint8_t *font, uint8_t offset)
{
  font += offset;
    37aa:	0b 96       	adiw	r24, 0x0b	; 11
  return u8g_pgm_read( (u8g_pgm_uint8_t *)font );  
    37ac:	fc 01       	movw	r30, r24
    37ae:	84 91       	lpm	r24, Z
}

uint8_t u8g_font_GetFontEndEncoding(const void *font)
{
  return u8g_font_get_byte(font, 11);
}
    37b0:	08 95       	ret

000037b2 <u8g_GetGlyph>:
/*
  Find (with some speed optimization) and return a pointer to the glyph data structure
  Also uncompress (format 1) and copy the content of the data structure to the u8g structure
*/
u8g_glyph_t u8g_GetGlyph(u8g_t *u8g, uint8_t requested_encoding)
{
    37b2:	a0 e0       	ldi	r26, 0x00	; 0
    37b4:	b0 e0       	ldi	r27, 0x00	; 0
    37b6:	ef ed       	ldi	r30, 0xDF	; 223
    37b8:	fb e1       	ldi	r31, 0x1B	; 27
    37ba:	0c 94 a3 6b 	jmp	0xd746	; 0xd746 <__prologue_saves__+0x10>
    37be:	ec 01       	movw	r28, r24
    37c0:	d6 2e       	mov	r13, r22
  uint8_t *p = (uint8_t *)(u8g->font);
    37c2:	0c 81       	ldd	r16, Y+4	; 0x04
    37c4:	1d 81       	ldd	r17, Y+5	; 0x05
  uint8_t font_format = u8g_font_GetFormat(u8g->font);
    37c6:	c8 01       	movw	r24, r16
    37c8:	da df       	rcall	.-76     	; 0x377e <u8g_font_GetFormat>
    37ca:	e8 2e       	mov	r14, r24
    37cc:	c8 01       	movw	r24, r16
  uint8_t data_structure_size = u8g_font_GetFontGlyphStructureSize(u8g->font);
    37ce:	da df       	rcall	.-76     	; 0x3784 <u8g_font_GetFontGlyphStructureSize>
    37d0:	a8 2e       	mov	r10, r24
    37d2:	21 e0       	ldi	r18, 0x01	; 1
    37d4:	e2 16       	cp	r14, r18
  uint8_t start, end;
  uint16_t pos;
  uint8_t i;
  uint8_t mask = 255;

  if ( font_format == 1 )
    37d6:	19 f0       	breq	.+6      	; 0x37de <u8g_GetGlyph+0x2c>
    37d8:	cc 24       	eor	r12, r12
    37da:	ca 94       	dec	r12
  uint8_t font_format = u8g_font_GetFormat(u8g->font);
  uint8_t data_structure_size = u8g_font_GetFontGlyphStructureSize(u8g->font);
  uint8_t start, end;
  uint16_t pos;
  uint8_t i;
  uint8_t mask = 255;
    37dc:	02 c0       	rjmp	.+4      	; 0x37e2 <u8g_GetGlyph+0x30>
    37de:	6f e0       	ldi	r22, 0x0F	; 15
    37e0:	c6 2e       	mov	r12, r22

  if ( font_format == 1 )
    mask = 15;
    37e2:	c8 01       	movw	r24, r16
    37e4:	de df       	rcall	.-68     	; 0x37a2 <u8g_font_GetFontStartEncoding>
  
  start = u8g_font_GetFontStartEncoding(u8g->font);
    37e6:	f8 2e       	mov	r15, r24
    37e8:	c8 01       	movw	r24, r16
    37ea:	df df       	rcall	.-66     	; 0x37aa <u8g_font_GetFontEndEncoding>
    37ec:	b8 2e       	mov	r11, r24
  end = u8g_font_GetFontEndEncoding(u8g->font);
    37ee:	c8 01       	movw	r24, r16
    37f0:	d6 df       	rcall	.-84     	; 0x379e <u8g_font_GetEncoding97Pos>
    37f2:	e0 e6       	ldi	r30, 0x60	; 96
    37f4:	ed 15       	cp	r30, r13

  pos = u8g_font_GetEncoding97Pos(u8g->font);
    37f6:	40 f4       	brcc	.+16     	; 0x3808 <u8g_GetGlyph+0x56>
    37f8:	00 97       	sbiw	r24, 0x00	; 0
    37fa:	31 f0       	breq	.+12     	; 0x3808 <u8g_GetGlyph+0x56>
  if ( requested_encoding >= 97 && pos > 0 )
    37fc:	98 01       	movw	r18, r16
    37fe:	28 0f       	add	r18, r24
    3800:	39 1f       	adc	r19, r25
    3802:	51 e6       	ldi	r21, 0x61	; 97
    3804:	f5 2e       	mov	r15, r21
  {
    p+= pos;
    3806:	0f c0       	rjmp	.+30     	; 0x3826 <u8g_GetGlyph+0x74>
    3808:	c8 01       	movw	r24, r16
    380a:	c7 df       	rcall	.-114    	; 0x379a <u8g_font_GetEncoding65Pos>
    start = 97;
    380c:	f0 e4       	ldi	r31, 0x40	; 64
    380e:	98 01       	movw	r18, r16
    3810:	fd 15       	cp	r31, r13
  }
  else 
  {
    pos = u8g_font_GetEncoding65Pos(u8g->font);
    3812:	38 f4       	brcc	.+14     	; 0x3822 <u8g_GetGlyph+0x70>
    3814:	00 97       	sbiw	r24, 0x00	; 0
    3816:	29 f0       	breq	.+10     	; 0x3822 <u8g_GetGlyph+0x70>
    if ( requested_encoding >= 65 && pos > 0 )
    3818:	28 0f       	add	r18, r24
    {
      p+= pos;
    381a:	39 1f       	adc	r19, r25
    start = 97;
  }
  else 
  {
    pos = u8g_font_GetEncoding65Pos(u8g->font);
    if ( requested_encoding >= 65 && pos > 0 )
    381c:	41 e4       	ldi	r20, 0x41	; 65
    381e:	f4 2e       	mov	r15, r20
    3820:	02 c0       	rjmp	.+4      	; 0x3826 <u8g_GetGlyph+0x74>
    3822:	2f 5e       	subi	r18, 0xEF	; 239
    {
      p+= pos;
    3824:	3f 4f       	sbci	r19, 0xFF	; 255
    3826:	bd 14       	cp	r11, r13
      start = 65;
    3828:	40 f4       	brcc	.+16     	; 0x383a <u8g_GetGlyph+0x88>
    382a:	18 8a       	std	Y+16, r1	; 0x10
    382c:	1b 8a       	std	Y+19, r1	; 0x13
    }
    else
      p += U8G_FONT_DATA_STRUCT_SIZE;       /* skip font general information */  
    382e:	1c 8a       	std	Y+20, r1	; 0x14
    3830:	19 8a       	std	Y+17, r1	; 0x11
  }
  
  if ( requested_encoding > end )
    3832:	1a 8a       	std	Y+18, r1	; 0x12
    3834:	80 e0       	ldi	r24, 0x00	; 0
}

//void u8g_FillEmptyGlyphCache(u8g_t *u8g) U8G_NOINLINE;
static void u8g_FillEmptyGlyphCache(u8g_t *u8g)
{
  u8g->glyph_dx = 0;
    3836:	90 e0       	ldi	r25, 0x00	; 0
  u8g->glyph_width = 0;
    3838:	4c c0       	rjmp	.+152    	; 0x38d2 <u8g_GetGlyph+0x120>
  u8g->glyph_height = 0;
    383a:	bf 14       	cp	r11, r15
  u8g->glyph_x = 0;
    383c:	b0 f3       	brcs	.-20     	; 0x382a <u8g_GetGlyph+0x78>
  u8g->glyph_y = 0;
    383e:	4a 2d       	mov	r20, r10
  }
  
  if ( requested_encoding > end )
  {
    u8g_FillEmptyGlyphCache(u8g);
    return NULL;                      /* not found */
    3840:	50 e0       	ldi	r21, 0x00	; 0
    3842:	f9 01       	movw	r30, r18
    3844:	84 91       	lpm	r24, Z
  }
  
  i = start;
  if ( i <= end )
    3846:	8f 3f       	cpi	r24, 0xFF	; 255
    3848:	19 f4       	brne	.+6      	; 0x3850 <u8g_GetGlyph+0x9e>
        {
          u8g_CopyGlyphDataToCache(u8g, p);
          return p;
        }
        p += u8g_pgm_read( ((u8g_pgm_uint8_t *)(p)) + 2 ) & mask;
        p += data_structure_size;
    384a:	2f 5f       	subi	r18, 0xFF	; 255
    384c:	3f 4f       	sbci	r19, 0xFF	; 255
  i = start;
  if ( i <= end )
  {
    for(;;)
    {
      if ( u8g_pgm_read((u8g_pgm_uint8_t *)(p)) == 255 )
    384e:	3c c0       	rjmp	.+120    	; 0x38c8 <u8g_GetGlyph+0x116>
    3850:	fd 10       	cpse	r15, r13
    3852:	32 c0       	rjmp	.+100    	; 0x38b8 <u8g_GetGlyph+0x106>
    3854:	a9 01       	movw	r20, r18
      {
        p += 1;
    3856:	4f 5f       	subi	r20, 0xFF	; 255
    3858:	5f 4f       	sbci	r21, 0xFF	; 255
    385a:	ee 20       	and	r14, r14
      }
      else
      {
        if ( i == requested_encoding )
    385c:	19 f0       	breq	.+6      	; 0x3864 <u8g_GetGlyph+0xb2>
    385e:	f2 e0       	ldi	r31, 0x02	; 2
    3860:	ef 12       	cpse	r14, r31
    3862:	13 c0       	rjmp	.+38     	; 0x388a <u8g_GetGlyph+0xd8>
    3864:	f9 01       	movw	r30, r18
/* glyph handling */

static void u8g_CopyGlyphDataToCache(u8g_t *u8g, u8g_glyph_t g)
{
  uint8_t tmp;
  switch( u8g_font_GetFormat(u8g->font) )
    3866:	84 91       	lpm	r24, Z
    3868:	8b 8b       	std	Y+19, r24	; 0x13
    386a:	fa 01       	movw	r30, r20
    386c:	44 91       	lpm	r20, Z
    386e:	4c 8b       	std	Y+20, r20	; 0x14
    3             DWIDTH                                          signed
    4             BBX xoffset                                    signed
    5             BBX yoffset                                    signed
  byte 0 == 255 indicates empty glyph
  */
      u8g->glyph_width =  u8g_pgm_read( ((u8g_pgm_uint8_t *)g) + 0 );
    3870:	f9 01       	movw	r30, r18
    3872:	33 96       	adiw	r30, 0x03	; 3
    3874:	e4 91       	lpm	r30, Z
      u8g->glyph_height =  u8g_pgm_read( ((u8g_pgm_uint8_t *)g) + 1 );
    3876:	e8 8b       	std	Y+16, r30	; 0x10
    3878:	f9 01       	movw	r30, r18
    387a:	34 96       	adiw	r30, 0x04	; 4
      u8g->glyph_dx =  u8g_pgm_read( ((u8g_pgm_uint8_t *)g) + 3 );
    387c:	e4 91       	lpm	r30, Z
    387e:	e9 8b       	std	Y+17, r30	; 0x11
    3880:	f9 01       	movw	r30, r18
    3882:	35 96       	adiw	r30, 0x05	; 5
      u8g->glyph_x =  u8g_pgm_read( ((u8g_pgm_uint8_t *)g) + 4 );
    3884:	e4 91       	lpm	r30, Z
    3886:	ea 8b       	std	Y+18, r30	; 0x12
    3888:	15 c0       	rjmp	.+42     	; 0x38b4 <u8g_GetGlyph+0x102>
    388a:	98 2f       	mov	r25, r24
      u8g->glyph_y =  u8g_pgm_read( ((u8g_pgm_uint8_t *)g) + 5 );
    388c:	9f 70       	andi	r25, 0x0F	; 15
    388e:	92 50       	subi	r25, 0x02	; 2
    3890:	9a 8b       	std	Y+18, r25	; 0x12
    3892:	82 95       	swap	r24
    3894:	8f 70       	andi	r24, 0x0F	; 15
  2             DWIDTH                                          signed --> upper  4 Bit
  byte 0 == 255 indicates empty glyph
      */
    
      tmp = u8g_pgm_read( ((u8g_pgm_uint8_t *)g) + 0 );
      u8g->glyph_y =  tmp & 15;
    3896:	89 8b       	std	Y+17, r24	; 0x11
    3898:	fa 01       	movw	r30, r20
      u8g->glyph_y-=2;
    389a:	44 91       	lpm	r20, Z
    389c:	84 2f       	mov	r24, r20
      tmp >>= 4;
    389e:	8f 70       	andi	r24, 0x0F	; 15
    38a0:	8c 8b       	std	Y+20, r24	; 0x14
      u8g->glyph_x =  tmp;
    38a2:	42 95       	swap	r20
    
      tmp = u8g_pgm_read( ((u8g_pgm_uint8_t *)g) + 1 );
    38a4:	4f 70       	andi	r20, 0x0F	; 15
    38a6:	4b 8b       	std	Y+19, r20	; 0x13
      u8g->glyph_height =  tmp & 15;
    38a8:	f9 01       	movw	r30, r18
    38aa:	32 96       	adiw	r30, 0x02	; 2
    38ac:	e4 91       	lpm	r30, Z
      tmp >>= 4;
    38ae:	e2 95       	swap	r30
    38b0:	ef 70       	andi	r30, 0x0F	; 15
      u8g->glyph_width =  tmp;
    38b2:	e8 8b       	std	Y+16, r30	; 0x10
      
      tmp = u8g_pgm_read( ((u8g_pgm_uint8_t *)g) + 2 );
    38b4:	c9 01       	movw	r24, r18
    38b6:	0d c0       	rjmp	.+26     	; 0x38d2 <u8g_GetGlyph+0x120>
    38b8:	f9 01       	movw	r30, r18
      tmp >>= 4;
    38ba:	32 96       	adiw	r30, 0x02	; 2
    38bc:	e4 91       	lpm	r30, Z
      u8g->glyph_dx = tmp;
    38be:	ec 21       	and	r30, r12
    38c0:	2e 0f       	add	r18, r30
    38c2:	31 1d       	adc	r19, r1
        if ( i == requested_encoding )
        {
          u8g_CopyGlyphDataToCache(u8g, p);
          return p;
        }
        p += u8g_pgm_read( ((u8g_pgm_uint8_t *)(p)) + 2 ) & mask;
    38c4:	24 0f       	add	r18, r20
    38c6:	35 1f       	adc	r19, r21
    38c8:	fb 14       	cp	r15, r11
    38ca:	09 f4       	brne	.+2      	; 0x38ce <u8g_GetGlyph+0x11c>
    38cc:	ae cf       	rjmp	.-164    	; 0x382a <u8g_GetGlyph+0x78>
    38ce:	f3 94       	inc	r15
        p += data_structure_size;
    38d0:	b8 cf       	rjmp	.-144    	; 0x3842 <u8g_GetGlyph+0x90>
    38d2:	cd b7       	in	r28, 0x3d	; 61
      }
      if ( i == end )
    38d4:	de b7       	in	r29, 0x3e	; 62
    38d6:	ea e0       	ldi	r30, 0x0A	; 10
    38d8:	0c 94 bf 6b 	jmp	0xd77e	; 0xd77e <__epilogue_restores__+0x10>

000038dc <u8g_draw_glyph>:
  return u8g->glyph_dx;
}
#endif

int8_t u8g_draw_glyph(u8g_t *u8g, u8g_uint_t x, u8g_uint_t y, uint8_t encoding)
{
    38dc:	4f 92       	push	r4
    38de:	5f 92       	push	r5
    38e0:	7f 92       	push	r7
    38e2:	8f 92       	push	r8
    38e4:	9f 92       	push	r9
    38e6:	af 92       	push	r10
    38e8:	bf 92       	push	r11
    38ea:	cf 92       	push	r12
    38ec:	df 92       	push	r13
    38ee:	ef 92       	push	r14
    38f0:	ff 92       	push	r15
    38f2:	0f 93       	push	r16
    38f4:	1f 93       	push	r17
    38f6:	cf 93       	push	r28
    38f8:	df 93       	push	r29
    38fa:	1f 92       	push	r1
    38fc:	cd b7       	in	r28, 0x3d	; 61
    38fe:	de b7       	in	r29, 0x3e	; 62
    3900:	2c 01       	movw	r4, r24
    3902:	16 2f       	mov	r17, r22
    3904:	74 2e       	mov	r7, r20
  uint8_t w, h;
  uint8_t i, j;
  u8g_uint_t ix, iy;

  {
    u8g_glyph_t g = u8g_GetGlyph(u8g, encoding);
    3906:	62 2f       	mov	r22, r18
    3908:	54 df       	rcall	.-344    	; 0x37b2 <u8g_GetGlyph>
    390a:	6c 01       	movw	r12, r24
    390c:	00 97       	sbiw	r24, 0x00	; 0
    if ( g == NULL  )
    390e:	09 f4       	brne	.+2      	; 0x3912 <u8g_draw_glyph+0x36>
    3910:	3c c0       	rjmp	.+120    	; 0x398a <u8g_draw_glyph+0xae>
    3912:	f2 01       	movw	r30, r4


/* return the data start for a font and the glyph pointer */
static uint8_t *u8g_font_GetGlyphDataStart(const void *font, u8g_glyph_t g)
{
  return ((u8g_fntpgm_uint8_t *)g) + u8g_font_GetFontGlyphStructureSize(font);
    3914:	84 81       	ldd	r24, Z+4	; 0x04
    3916:	95 81       	ldd	r25, Z+5	; 0x05
    3918:	35 df       	rcall	.-406    	; 0x3784 <u8g_font_GetFontGlyphStructureSize>
    391a:	f8 2e       	mov	r15, r24
    391c:	f2 01       	movw	r30, r4
    391e:	83 88       	ldd	r8, Z+19	; 0x13
    if ( g == NULL  )
      return 0;
    data = u8g_font_GetGlyphDataStart(u8g->font, g);
  }
  
  w = u8g->glyph_width;
    3920:	04 89       	ldd	r16, Z+20	; 0x14
    3922:	91 88       	ldd	r9, Z+17	; 0x11
  h = u8g->glyph_height;
    3924:	91 0e       	add	r9, r17
  
  x += u8g->glyph_x;
    3926:	82 89       	ldd	r24, Z+18	; 0x12
    3928:	78 1a       	sub	r7, r24
  y -= u8g->glyph_y;
  y--;
  
  if ( u8g_IsBBXIntersection(u8g, x, y-h+1, w, h) == 0 )
    392a:	17 2d       	mov	r17, r7
    392c:	10 1b       	sub	r17, r16
    392e:	28 2d       	mov	r18, r8
    3930:	41 2f       	mov	r20, r17
    3932:	69 2d       	mov	r22, r9
    3934:	c2 01       	movw	r24, r4
    3936:	0e 94 bd 63 	call	0xc77a	; 0xc77a <u8g_IsBBXIntersection>
    393a:	88 23       	and	r24, r24
    393c:	19 f1       	breq	.+70     	; 0x3984 <u8g_draw_glyph+0xa8>
    393e:	cf 0c       	add	r12, r15
    3940:	d1 1c       	adc	r13, r1


/* return the data start for a font and the glyph pointer */
static uint8_t *u8g_font_GetGlyphDataStart(const void *font, u8g_glyph_t g)
{
  return ((u8g_fntpgm_uint8_t *)g) + u8g_font_GetFontGlyphStructureSize(font);
    3942:	f7 e0       	ldi	r31, 0x07	; 7
    3944:	8f 0e       	add	r8, r31
  
  if ( u8g_IsBBXIntersection(u8g, x, y-h+1, w, h) == 0 )
    return u8g->glyph_dx;

  /* now, w is reused as bytes per line */
  w += 7;
    3946:	86 94       	lsr	r8
    3948:	86 94       	lsr	r8
  w /= 8;
    394a:	86 94       	lsr	r8
    394c:	a8 2c       	mov	r10, r8
    394e:	b1 2c       	mov	r11, r1
    3950:	17 15       	cp	r17, r7
    3952:	c1 f0       	breq	.+48     	; 0x3984 <u8g_draw_glyph+0xa8>
  
  iy = y;
  iy -= h;
  iy++;

  for( j = 0; j < h; j++ )
    3954:	39 2d       	mov	r19, r9
    3956:	76 01       	movw	r14, r12
    3958:	8e 2d       	mov	r24, r14
    395a:	8c 19       	sub	r24, r12
    395c:	88 15       	cp	r24, r8
    395e:	70 f4       	brcc	.+28     	; 0x397c <u8g_draw_glyph+0xa0>
  {
    ix = x;
    for( i = 0; i < w; i++ )
    3960:	f7 01       	movw	r30, r14
    3962:	04 91       	lpm	r16, Z
    {
      u8g_Draw8Pixel(u8g, ix, iy, 0, u8g_pgm_read(data));
    3964:	20 e0       	ldi	r18, 0x00	; 0
    3966:	41 2f       	mov	r20, r17
    3968:	63 2f       	mov	r22, r19
    396a:	c2 01       	movw	r24, r4
    396c:	39 83       	std	Y+1, r19	; 0x01
    396e:	fd d1       	rcall	.+1018   	; 0x3d6a <u8g_Draw8Pixel>
    3970:	ff ef       	ldi	r31, 0xFF	; 255
    3972:	ef 1a       	sub	r14, r31
    3974:	ff 0a       	sbc	r15, r31
      data++;
    3976:	39 81       	ldd	r19, Y+1	; 0x01
    3978:	38 5f       	subi	r19, 0xF8	; 248
    397a:	ee cf       	rjmp	.-36     	; 0x3958 <u8g_draw_glyph+0x7c>
      ix+=8;
    397c:	ca 0c       	add	r12, r10
    397e:	db 1c       	adc	r13, r11
    3980:	1f 5f       	subi	r17, 0xFF	; 255
    3982:	e6 cf       	rjmp	.-52     	; 0x3950 <u8g_draw_glyph+0x74>
    3984:	f2 01       	movw	r30, r4
    }
    iy++;
    3986:	80 89       	ldd	r24, Z+16	; 0x10
    3988:	01 c0       	rjmp	.+2      	; 0x398c <u8g_draw_glyph+0xb0>
  }
  return u8g->glyph_dx;
    398a:	80 e0       	ldi	r24, 0x00	; 0
    398c:	0f 90       	pop	r0
    398e:	df 91       	pop	r29
  u8g_uint_t ix, iy;

  {
    u8g_glyph_t g = u8g_GetGlyph(u8g, encoding);
    if ( g == NULL  )
      return 0;
    3990:	cf 91       	pop	r28
      ix+=8;
    }
    iy++;
  }
  return u8g->glyph_dx;
}
    3992:	1f 91       	pop	r17
    3994:	0f 91       	pop	r16
    3996:	ff 90       	pop	r15
    3998:	ef 90       	pop	r14
    399a:	df 90       	pop	r13
    399c:	cf 90       	pop	r12
    399e:	bf 90       	pop	r11
    39a0:	af 90       	pop	r10
    39a2:	9f 90       	pop	r9
    39a4:	8f 90       	pop	r8
    39a6:	7f 90       	pop	r7
    39a8:	5f 90       	pop	r5
    39aa:	4f 90       	pop	r4
    39ac:	08 95       	ret

000039ae <u8g_DrawStr>:
/*========================================================================*/
/* string drawing procedures */


u8g_uint_t u8g_DrawStr(u8g_t *u8g, u8g_uint_t x, u8g_uint_t y, const char *s)
{
    39ae:	af 92       	push	r10
    39b0:	bf 92       	push	r11
    39b2:	df 92       	push	r13
    39b4:	ef 92       	push	r14
    39b6:	ff 92       	push	r15
    39b8:	0f 93       	push	r16
    39ba:	1f 93       	push	r17
    39bc:	cf 93       	push	r28
    39be:	df 93       	push	r29
    39c0:	1f 92       	push	r1
    39c2:	1f 92       	push	r1
    39c4:	cd b7       	in	r28, 0x3d	; 61
    39c6:	de b7       	in	r29, 0x3e	; 62
    39c8:	8c 01       	movw	r16, r24
    39ca:	e6 2e       	mov	r14, r22
    39cc:	f4 2e       	mov	r15, r20
  int8_t d;
  
  //u8g_uint_t u8g_GetStrWidth(u8g, s);
  //u8g_font_GetFontAscent(u8g->font)-u8g_font_GetFontDescent(u8g->font);
  
  y += u8g->font_calc_vref(u8g);
    39ce:	dc 01       	movw	r26, r24
    39d0:	55 96       	adiw	r26, 0x15	; 21
    39d2:	ed 91       	ld	r30, X+
    39d4:	fc 91       	ld	r31, X
    39d6:	56 97       	sbiw	r26, 0x16	; 22
    39d8:	29 83       	std	Y+1, r18	; 0x01
    39da:	3a 83       	std	Y+2, r19	; 0x02
    39dc:	19 95       	eicall
    39de:	f8 0e       	add	r15, r24
    39e0:	29 81       	ldd	r18, Y+1	; 0x01
    39e2:	a2 2e       	mov	r10, r18
    39e4:	3a 81       	ldd	r19, Y+2	; 0x02
    39e6:	b3 2e       	mov	r11, r19
/* string drawing procedures */


u8g_uint_t u8g_DrawStr(u8g_t *u8g, u8g_uint_t x, u8g_uint_t y, const char *s)
{
  u8g_uint_t t = 0;
    39e8:	d1 2c       	mov	r13, r1
  //u8g_uint_t u8g_GetStrWidth(u8g, s);
  //u8g_font_GetFontAscent(u8g->font)-u8g_font_GetFontDescent(u8g->font);
  
  y += u8g->font_calc_vref(u8g);
  
  while( *s != '\0' )
    39ea:	f5 01       	movw	r30, r10
    39ec:	21 91       	ld	r18, Z+
    39ee:	5f 01       	movw	r10, r30
    39f0:	22 23       	and	r18, r18
    39f2:	39 f0       	breq	.+14     	; 0x3a02 <u8g_DrawStr+0x54>
  {
    d = u8g_draw_glyph(u8g, x, y, *s);
    39f4:	4f 2d       	mov	r20, r15
    39f6:	6e 2d       	mov	r22, r14
    39f8:	c8 01       	movw	r24, r16
    39fa:	70 df       	rcall	.-288    	; 0x38dc <u8g_draw_glyph>
    39fc:	e8 0e       	add	r14, r24
    x += d;
    39fe:	d8 0e       	add	r13, r24
    t += d;
    3a00:	f4 cf       	rjmp	.-24     	; 0x39ea <u8g_DrawStr+0x3c>
    3a02:	8d 2d       	mov	r24, r13
    s++;
  }
  return t;
}
    3a04:	0f 90       	pop	r0
    3a06:	0f 90       	pop	r0
    3a08:	df 91       	pop	r29
    3a0a:	cf 91       	pop	r28
    3a0c:	1f 91       	pop	r17
    3a0e:	0f 91       	pop	r16
    3a10:	ff 90       	pop	r15
    3a12:	ef 90       	pop	r14
    3a14:	df 90       	pop	r13
    3a16:	bf 90       	pop	r11
    3a18:	af 90       	pop	r10
    3a1a:	08 95       	ret

00003a1c <u8g_UpdateRefHeight>:

/*========================================================================*/
/* set ascent/descent for reference point calculation */

void u8g_UpdateRefHeight(u8g_t *u8g)
{
    3a1c:	dc 01       	movw	r26, r24
  uint16_t ls;
  if ( u8g->font == NULL )
    3a1e:	14 96       	adiw	r26, 0x04	; 4
    3a20:	8d 91       	ld	r24, X+
    3a22:	9c 91       	ld	r25, X
    3a24:	15 97       	sbiw	r26, 0x05	; 5
    3a26:	00 97       	sbiw	r24, 0x00	; 0
    3a28:	09 f4       	brne	.+2      	; 0x3a2c <u8g_UpdateRefHeight+0x10>
    3a2a:	3f c0       	rjmp	.+126    	; 0x3aaa <u8g_UpdateRefHeight+0x8e>
    return;
  if ( u8g->font_height_mode == U8G_FONT_HEIGHT_MODE_TEXT )
    3a2c:	57 96       	adiw	r26, 0x17	; 23
    3a2e:	2c 91       	ld	r18, X
    3a30:	57 97       	sbiw	r26, 0x17	; 23

/* removed NOINLINE, because it leads to smaller code, might also be faster */
//static uint8_t u8g_font_get_byte(const u8g_fntpgm_uint8_t *font, uint8_t offset) U8G_NOINLINE;
static uint8_t u8g_font_get_byte(const u8g_fntpgm_uint8_t *font, uint8_t offset)
{
  font += offset;
    3a32:	fc 01       	movw	r30, r24
void u8g_UpdateRefHeight(u8g_t *u8g)
{
  uint16_t ls;
  if ( u8g->font == NULL )
    return;
  if ( u8g->font_height_mode == U8G_FONT_HEIGHT_MODE_TEXT )
    3a34:	21 11       	cpse	r18, r1
    3a36:	08 c0       	rjmp	.+16     	; 0x3a48 <u8g_UpdateRefHeight+0x2c>

/* removed NOINLINE, because it leads to smaller code, might also be faster */
//static uint8_t u8g_font_get_byte(const u8g_fntpgm_uint8_t *font, uint8_t offset) U8G_NOINLINE;
static uint8_t u8g_font_get_byte(const u8g_fntpgm_uint8_t *font, uint8_t offset)
{
  font += offset;
    3a38:	35 96       	adiw	r30, 0x05	; 5
  return u8g_pgm_read( (u8g_pgm_uint8_t *)font );  
    3a3a:	e4 91       	lpm	r30, Z
  uint16_t ls;
  if ( u8g->font == NULL )
    return;
  if ( u8g->font_height_mode == U8G_FONT_HEIGHT_MODE_TEXT )
  {
    u8g->font_ref_ascent = u8g_font_GetCapitalAHeight(u8g->font);
    3a3c:	58 96       	adiw	r26, 0x18	; 24
    3a3e:	ec 93       	st	X, r30
    3a40:	58 97       	sbiw	r26, 0x18	; 24

/* removed NOINLINE, because it leads to smaller code, might also be faster */
//static uint8_t u8g_font_get_byte(const u8g_fntpgm_uint8_t *font, uint8_t offset) U8G_NOINLINE;
static uint8_t u8g_font_get_byte(const u8g_fntpgm_uint8_t *font, uint8_t offset)
{
  font += offset;
    3a42:	fc 01       	movw	r30, r24
    3a44:	3c 96       	adiw	r30, 0x0c	; 12
    3a46:	11 c0       	rjmp	.+34     	; 0x3a6a <u8g_UpdateRefHeight+0x4e>
  if ( u8g->font_height_mode == U8G_FONT_HEIGHT_MODE_TEXT )
  {
    u8g->font_ref_ascent = u8g_font_GetCapitalAHeight(u8g->font);
    u8g->font_ref_descent = u8g_font_GetLowerGDescent(u8g->font);
  }
  else if ( u8g->font_height_mode == U8G_FONT_HEIGHT_MODE_XTEXT )
    3a48:	21 30       	cpi	r18, 0x01	; 1
    3a4a:	41 f4       	brne	.+16     	; 0x3a5c <u8g_UpdateRefHeight+0x40>

/* removed NOINLINE, because it leads to smaller code, might also be faster */
//static uint8_t u8g_font_get_byte(const u8g_fntpgm_uint8_t *font, uint8_t offset) U8G_NOINLINE;
static uint8_t u8g_font_get_byte(const u8g_fntpgm_uint8_t *font, uint8_t offset)
{
  font += offset;
    3a4c:	3f 96       	adiw	r30, 0x0f	; 15
  return u8g_pgm_read( (u8g_pgm_uint8_t *)font );  
    3a4e:	e4 91       	lpm	r30, Z
    u8g->font_ref_ascent = u8g_font_GetCapitalAHeight(u8g->font);
    u8g->font_ref_descent = u8g_font_GetLowerGDescent(u8g->font);
  }
  else if ( u8g->font_height_mode == U8G_FONT_HEIGHT_MODE_XTEXT )
  {
    u8g->font_ref_ascent = u8g_font_GetFontXAscent(u8g->font);
    3a50:	58 96       	adiw	r26, 0x18	; 24
    3a52:	ec 93       	st	X, r30
    3a54:	58 97       	sbiw	r26, 0x18	; 24

/* removed NOINLINE, because it leads to smaller code, might also be faster */
//static uint8_t u8g_font_get_byte(const u8g_fntpgm_uint8_t *font, uint8_t offset) U8G_NOINLINE;
static uint8_t u8g_font_get_byte(const u8g_fntpgm_uint8_t *font, uint8_t offset)
{
  font += offset;
    3a56:	fc 01       	movw	r30, r24
    3a58:	70 96       	adiw	r30, 0x10	; 16
    3a5a:	07 c0       	rjmp	.+14     	; 0x3a6a <u8g_UpdateRefHeight+0x4e>
    3a5c:	3d 96       	adiw	r30, 0x0d	; 13
  return u8g_pgm_read( (u8g_pgm_uint8_t *)font );  
    3a5e:	e4 91       	lpm	r30, Z
    u8g->font_ref_ascent = u8g_font_GetFontXAscent(u8g->font);
    u8g->font_ref_descent = u8g_font_GetFontXDescent(u8g->font);
  }
  else
  {
    u8g->font_ref_ascent = u8g_font_GetFontAscent(u8g->font);
    3a60:	58 96       	adiw	r26, 0x18	; 24
    3a62:	ec 93       	st	X, r30
    3a64:	58 97       	sbiw	r26, 0x18	; 24

/* removed NOINLINE, because it leads to smaller code, might also be faster */
//static uint8_t u8g_font_get_byte(const u8g_fntpgm_uint8_t *font, uint8_t offset) U8G_NOINLINE;
static uint8_t u8g_font_get_byte(const u8g_fntpgm_uint8_t *font, uint8_t offset)
{
  font += offset;
    3a66:	fc 01       	movw	r30, r24
    3a68:	3e 96       	adiw	r30, 0x0e	; 14
  return u8g_pgm_read( (u8g_pgm_uint8_t *)font );  
    3a6a:	84 91       	lpm	r24, Z
    u8g->font_ref_descent = u8g_font_GetFontXDescent(u8g->font);
  }
  else
  {
    u8g->font_ref_ascent = u8g_font_GetFontAscent(u8g->font);
    u8g->font_ref_descent = u8g_font_GetFontDescent(u8g->font);
    3a6c:	59 96       	adiw	r26, 0x19	; 25
    3a6e:	8c 93       	st	X, r24
    3a70:	59 97       	sbiw	r26, 0x19	; 25
  }
  
  ls = u8g->font_ref_ascent - u8g->font_ref_descent;
    3a72:	58 96       	adiw	r26, 0x18	; 24
    3a74:	8c 91       	ld	r24, X
    3a76:	58 97       	sbiw	r26, 0x18	; 24
    3a78:	99 27       	eor	r25, r25
    3a7a:	87 fd       	sbrc	r24, 7
    3a7c:	90 95       	com	r25
    3a7e:	59 96       	adiw	r26, 0x19	; 25
    3a80:	2c 91       	ld	r18, X
    3a82:	59 97       	sbiw	r26, 0x19	; 25
    3a84:	82 1b       	sub	r24, r18
    3a86:	91 09       	sbc	r25, r1
    3a88:	27 fd       	sbrc	r18, 7
    3a8a:	93 95       	inc	r25
  if ( u8g->font_line_spacing_factor != 64 )
    3a8c:	5a 96       	adiw	r26, 0x1a	; 26
    3a8e:	2c 91       	ld	r18, X
    3a90:	5a 97       	sbiw	r26, 0x1a	; 26
    3a92:	20 34       	cpi	r18, 0x40	; 64
    3a94:	41 f0       	breq	.+16     	; 0x3aa6 <u8g_UpdateRefHeight+0x8a>
  {
    ls &= 255;
    ls *= u8g->font_line_spacing_factor;
    3a96:	82 9f       	mul	r24, r18
    3a98:	c0 01       	movw	r24, r0
    3a9a:	11 24       	eor	r1, r1
    ls >>= 6;
    3a9c:	f6 e0       	ldi	r31, 0x06	; 6
    3a9e:	96 95       	lsr	r25
    3aa0:	87 95       	ror	r24
    3aa2:	fa 95       	dec	r31
    3aa4:	e1 f7       	brne	.-8      	; 0x3a9e <u8g_UpdateRefHeight+0x82>
  }
  u8g->line_spacing = ls;
    3aa6:	5b 96       	adiw	r26, 0x1b	; 27
    3aa8:	8c 93       	st	X, r24
    3aaa:	08 95       	ret

00003aac <u8g_SetFontPosBaseline>:
  return 0;
}

void u8g_SetFontPosBaseline(u8g_t *u8g)
{
  u8g->font_calc_vref = u8g_font_calc_vref_font;
    3aac:	2b ec       	ldi	r18, 0xCB	; 203
    3aae:	3b e1       	ldi	r19, 0x1B	; 27
    3ab0:	fc 01       	movw	r30, r24
    3ab2:	36 8b       	std	Z+22, r19	; 0x16
    3ab4:	25 8b       	std	Z+21, r18	; 0x15
    3ab6:	08 95       	ret

00003ab8 <u8g_SetFont>:
    buf.y_max = cap_a;
  u8g_font_get_str_box_fill_args(u8g, s, &buf, x, y, width, height);
}

void u8g_SetFont(u8g_t *u8g, const u8g_fntpgm_uint8_t  *font)
{
    3ab8:	cf 93       	push	r28
    3aba:	df 93       	push	r29
    3abc:	ec 01       	movw	r28, r24
  if ( u8g->font != font )
    3abe:	8c 81       	ldd	r24, Y+4	; 0x04
    3ac0:	9d 81       	ldd	r25, Y+5	; 0x05
    3ac2:	86 17       	cp	r24, r22
    3ac4:	97 07       	cpc	r25, r23
    3ac6:	41 f0       	breq	.+16     	; 0x3ad8 <u8g_SetFont+0x20>
  {
    u8g->font = font;
    3ac8:	7d 83       	std	Y+5, r23	; 0x05
    3aca:	6c 83       	std	Y+4, r22	; 0x04
    u8g_UpdateRefHeight(u8g);
    3acc:	ce 01       	movw	r24, r28
    3ace:	a6 df       	rcall	.-180    	; 0x3a1c <u8g_UpdateRefHeight>
    3ad0:	8b ec       	ldi	r24, 0xCB	; 203
  return 0;
}

void u8g_SetFontPosBaseline(u8g_t *u8g)
{
  u8g->font_calc_vref = u8g_font_calc_vref_font;
    3ad2:	9b e1       	ldi	r25, 0x1B	; 27
    3ad4:	9e 8b       	std	Y+22, r25	; 0x16
    3ad6:	8d 8b       	std	Y+21, r24	; 0x15
    3ad8:	df 91       	pop	r29
  {
    u8g->font = font;
    u8g_UpdateRefHeight(u8g);
    u8g_SetFontPosBaseline(u8g);
  }
}
    3ada:	cf 91       	pop	r28
    3adc:	08 95       	ret

00003ade <u8g_init_data>:
  /* 9 Dec 2012: u8g_scale.c requires update of current page */
  u8g_call_dev_fn(u8g, u8g->dev, U8G_DEV_MSG_GET_PAGE_BOX, &(u8g->current_page));
}

static void u8g_init_data(u8g_t *u8g)
{
    3ade:	1f 93       	push	r17
    3ae0:	cf 93       	push	r28
    3ae2:	df 93       	push	r29
    3ae4:	ec 01       	movw	r28, r24
  u8g->font = NULL;
    3ae6:	1d 82       	std	Y+5, r1	; 0x05
    3ae8:	1c 82       	std	Y+4, r1	; 0x04
  u8g->cursor_font = NULL;
    3aea:	1f 82       	std	Y+7, r1	; 0x07
    3aec:	1e 82       	std	Y+6, r1	; 0x06
  u8g->cursor_bg_color = 0;
    3aee:	19 86       	std	Y+9, r1	; 0x09
  u8g->cursor_fg_color = 1;
    3af0:	81 e0       	ldi	r24, 0x01	; 1
    3af2:	88 87       	std	Y+8, r24	; 0x08
  u8g->cursor_encoding = 34;
    3af4:	82 e2       	ldi	r24, 0x22	; 34
    3af6:	8a 87       	std	Y+10, r24	; 0x0a
  u8g->cursor_fn = (u8g_draw_cursor_fn)0;
    3af8:	1f 86       	std	Y+15, r1	; 0x0f
    3afa:	1e 86       	std	Y+14, r1	; 0x0e
    3afc:	80 e0       	ldi	r24, 0x00	; 0
    3afe:	90 e0       	ldi	r25, 0x00	; 0

#if defined(U8G_WITH_PINLIST)  
  {
    uint8_t i;
    for( i = 0; i < U8G_PIN_LIST_LEN; i++ )
      u8g->pin_list[i] = U8G_PIN_NONE;
    3b00:	2f ef       	ldi	r18, 0xFF	; 255
    3b02:	fe 01       	movw	r30, r28
    3b04:	e8 0f       	add	r30, r24
    3b06:	f9 1f       	adc	r31, r25
    3b08:	23 a3       	std	Z+35, r18	; 0x23
    3b0a:	01 96       	adiw	r24, 0x01	; 1
  u8g->cursor_fn = (u8g_draw_cursor_fn)0;

#if defined(U8G_WITH_PINLIST)  
  {
    uint8_t i;
    for( i = 0; i < U8G_PIN_LIST_LEN; i++ )
    3b0c:	8e 30       	cpi	r24, 0x0E	; 14
    3b0e:	91 05       	cpc	r25, r1
    3b10:	c1 f7       	brne	.-16     	; 0x3b02 <u8g_init_data+0x24>
  u8g_call_dev_fn(u8g, u8g->dev, U8G_DEV_MSG_SET_COLOR_ENTRY, &irgb);
}

void u8g_SetColorIndex(u8g_t *u8g, uint8_t idx)
{
  u8g->arg_pixel.color = idx;
    3b12:	11 e0       	ldi	r17, 0x01	; 1
    3b14:	18 a3       	std	Y+32, r17	; 0x20
  }
#endif
  
  u8g_SetColorIndex(u8g, 1);

  u8g_SetFontPosBaseline(u8g);
    3b16:	ce 01       	movw	r24, r28
    3b18:	c9 df       	rcall	.-110    	; 0x3aac <u8g_SetFontPosBaseline>
    3b1a:	1f 8b       	std	Y+23, r17	; 0x17
  
  u8g->font_height_mode = U8G_FONT_HEIGHT_MODE_XTEXT;
    3b1c:	18 8e       	std	Y+24, r1	; 0x18
  u8g->font_ref_ascent = 0;
    3b1e:	19 8e       	std	Y+25, r1	; 0x19
  u8g->font_ref_descent = 0;
    3b20:	80 e4       	ldi	r24, 0x40	; 64
  u8g->font_line_spacing_factor = 64;           /* 64 = 1.0, 77 = 1.2 line spacing factor */
    3b22:	8a 8f       	std	Y+26, r24	; 0x1a
    3b24:	1b 8e       	std	Y+27, r1	; 0x1b
  u8g->line_spacing = 0;
    3b26:	84 ed       	ldi	r24, 0xD4	; 212
  
  u8g->state_cb = u8g_state_dummy_cb;
    3b28:	9f e1       	ldi	r25, 0x1F	; 31
    3b2a:	9a ab       	std	Y+50, r25	; 0x32
    3b2c:	89 ab       	std	Y+49, r24	; 0x31
    3b2e:	df 91       	pop	r29

}
    3b30:	cf 91       	pop	r28
    3b32:	1f 91       	pop	r17
    3b34:	08 95       	ret

00003b36 <u8g_call_dev_fn>:
#include <stddef.h>
#include "u8g.h"

uint8_t u8g_call_dev_fn(u8g_t *u8g, u8g_dev_t *dev, uint8_t msg, void *arg)
{
  return dev->dev_fn(u8g, dev, msg, arg); 
    3b36:	db 01       	movw	r26, r22
    3b38:	ed 91       	ld	r30, X+
    3b3a:	fc 91       	ld	r31, X
    3b3c:	19 95       	eicall
}
    3b3e:	08 95       	ret

00003b40 <u8g_InitLL>:

/*====================================================================*/

uint8_t u8g_InitLL(u8g_t *u8g, u8g_dev_t *dev)
{
    3b40:	ef 92       	push	r14
    3b42:	ff 92       	push	r15
    3b44:	1f 93       	push	r17
    3b46:	cf 93       	push	r28
    3b48:	df 93       	push	r29
    3b4a:	1f 92       	push	r1
    3b4c:	1f 92       	push	r1
    3b4e:	cd b7       	in	r28, 0x3d	; 61
    3b50:	de b7       	in	r29, 0x3e	; 62
    3b52:	7c 01       	movw	r14, r24
  uint8_t r;
  u8g->state_cb(U8G_STATE_MSG_BACKUP_ENV);
    3b54:	dc 01       	movw	r26, r24
    3b56:	d1 96       	adiw	r26, 0x31	; 49
    3b58:	ed 91       	ld	r30, X+
    3b5a:	fc 91       	ld	r31, X
    3b5c:	d2 97       	sbiw	r26, 0x32	; 50
    3b5e:	82 e0       	ldi	r24, 0x02	; 2
    3b60:	69 83       	std	Y+1, r22	; 0x01
    3b62:	7a 83       	std	Y+2, r23	; 0x02
    3b64:	19 95       	eicall
  r =  u8g_call_dev_fn(u8g, dev, U8G_DEV_MSG_INIT, NULL);
    3b66:	20 e0       	ldi	r18, 0x00	; 0
    3b68:	30 e0       	ldi	r19, 0x00	; 0
    3b6a:	4a e0       	ldi	r20, 0x0A	; 10
    3b6c:	69 81       	ldd	r22, Y+1	; 0x01
    3b6e:	7a 81       	ldd	r23, Y+2	; 0x02
    3b70:	c7 01       	movw	r24, r14
    3b72:	e1 df       	rcall	.-62     	; 0x3b36 <u8g_call_dev_fn>
    3b74:	18 2f       	mov	r17, r24
    3b76:	d7 01       	movw	r26, r14
  u8g->state_cb(U8G_STATE_MSG_BACKUP_U8G);
    3b78:	d1 96       	adiw	r26, 0x31	; 49
    3b7a:	ed 91       	ld	r30, X+
    3b7c:	fc 91       	ld	r31, X
    3b7e:	d2 97       	sbiw	r26, 0x32	; 50
    3b80:	83 e0       	ldi	r24, 0x03	; 3
    3b82:	19 95       	eicall
    3b84:	d7 01       	movw	r26, r14
  u8g->state_cb(U8G_STATE_MSG_RESTORE_ENV);
    3b86:	d1 96       	adiw	r26, 0x31	; 49
    3b88:	ed 91       	ld	r30, X+
    3b8a:	fc 91       	ld	r31, X
    3b8c:	d2 97       	sbiw	r26, 0x32	; 50
    3b8e:	80 e0       	ldi	r24, 0x00	; 0
    3b90:	19 95       	eicall
    3b92:	81 2f       	mov	r24, r17
  return r;
}
    3b94:	0f 90       	pop	r0
    3b96:	0f 90       	pop	r0
    3b98:	df 91       	pop	r29
    3b9a:	cf 91       	pop	r28
    3b9c:	1f 91       	pop	r17
    3b9e:	ff 90       	pop	r15
    3ba0:	ef 90       	pop	r14
    3ba2:	08 95       	ret

00003ba4 <u8g_FirstPageLL>:

void u8g_FirstPageLL(u8g_t *u8g, u8g_dev_t *dev)
{  
    3ba4:	0f 93       	push	r16
    3ba6:	1f 93       	push	r17
    3ba8:	cf 93       	push	r28
    3baa:	df 93       	push	r29
    3bac:	ec 01       	movw	r28, r24
    3bae:	8b 01       	movw	r16, r22
  u8g->state_cb(U8G_STATE_MSG_BACKUP_ENV);
    3bb0:	e9 a9       	ldd	r30, Y+49	; 0x31
    3bb2:	fa a9       	ldd	r31, Y+50	; 0x32
    3bb4:	82 e0       	ldi	r24, 0x02	; 2
    3bb6:	19 95       	eicall
  u8g->state_cb(U8G_STATE_MSG_RESTORE_U8G);
    3bb8:	e9 a9       	ldd	r30, Y+49	; 0x31
    3bba:	fa a9       	ldd	r31, Y+50	; 0x32
    3bbc:	81 e0       	ldi	r24, 0x01	; 1
    3bbe:	19 95       	eicall
  u8g_call_dev_fn(u8g, dev, U8G_DEV_MSG_PAGE_FIRST, NULL);
    3bc0:	20 e0       	ldi	r18, 0x00	; 0
    3bc2:	30 e0       	ldi	r19, 0x00	; 0
    3bc4:	44 e1       	ldi	r20, 0x14	; 20
    3bc6:	b8 01       	movw	r22, r16
    3bc8:	ce 01       	movw	r24, r28
    3bca:	b5 df       	rcall	.-150    	; 0x3b36 <u8g_call_dev_fn>
    3bcc:	9e 01       	movw	r18, r28
  u8g_call_dev_fn(u8g, dev, U8G_DEV_MSG_GET_PAGE_BOX, &(u8g->current_page));
    3bce:	2d 5c       	subi	r18, 0xCD	; 205
    3bd0:	3f 4f       	sbci	r19, 0xFF	; 255
    3bd2:	47 e1       	ldi	r20, 0x17	; 23
    3bd4:	b8 01       	movw	r22, r16
    3bd6:	ce 01       	movw	r24, r28
    3bd8:	ae df       	rcall	.-164    	; 0x3b36 <u8g_call_dev_fn>
    3bda:	e9 a9       	ldd	r30, Y+49	; 0x31
    3bdc:	fa a9       	ldd	r31, Y+50	; 0x32
  u8g->state_cb(U8G_STATE_MSG_RESTORE_ENV);
    3bde:	80 e0       	ldi	r24, 0x00	; 0
    3be0:	19 95       	eicall
    3be2:	df 91       	pop	r29
    3be4:	cf 91       	pop	r28
}
    3be6:	1f 91       	pop	r17
    3be8:	0f 91       	pop	r16
    3bea:	08 95       	ret

00003bec <u8g_NextPageLL>:

uint8_t u8g_NextPageLL(u8g_t *u8g, u8g_dev_t *dev)
{  
    3bec:	ff 92       	push	r15
    3bee:	0f 93       	push	r16
    3bf0:	1f 93       	push	r17
    3bf2:	cf 93       	push	r28
    3bf4:	df 93       	push	r29
    3bf6:	ec 01       	movw	r28, r24
    3bf8:	8b 01       	movw	r16, r22
  uint8_t r;
  u8g->state_cb(U8G_STATE_MSG_BACKUP_ENV);
    3bfa:	e9 a9       	ldd	r30, Y+49	; 0x31
    3bfc:	fa a9       	ldd	r31, Y+50	; 0x32
    3bfe:	82 e0       	ldi	r24, 0x02	; 2
    3c00:	19 95       	eicall
  u8g->state_cb(U8G_STATE_MSG_RESTORE_U8G);
    3c02:	e9 a9       	ldd	r30, Y+49	; 0x31
    3c04:	fa a9       	ldd	r31, Y+50	; 0x32
    3c06:	81 e0       	ldi	r24, 0x01	; 1
    3c08:	19 95       	eicall
  r = u8g_call_dev_fn(u8g, dev, U8G_DEV_MSG_PAGE_NEXT, NULL);
    3c0a:	20 e0       	ldi	r18, 0x00	; 0
    3c0c:	30 e0       	ldi	r19, 0x00	; 0
    3c0e:	45 e1       	ldi	r20, 0x15	; 21
    3c10:	b8 01       	movw	r22, r16
    3c12:	ce 01       	movw	r24, r28
    3c14:	90 df       	rcall	.-224    	; 0x3b36 <u8g_call_dev_fn>
    3c16:	f8 2e       	mov	r15, r24
    3c18:	88 23       	and	r24, r24
  if ( r != 0 )
    3c1a:	39 f0       	breq	.+14     	; 0x3c2a <u8g_NextPageLL+0x3e>
    3c1c:	9e 01       	movw	r18, r28
  {
    u8g_call_dev_fn(u8g, dev, U8G_DEV_MSG_GET_PAGE_BOX, &(u8g->current_page));
    3c1e:	2d 5c       	subi	r18, 0xCD	; 205
    3c20:	3f 4f       	sbci	r19, 0xFF	; 255
    3c22:	47 e1       	ldi	r20, 0x17	; 23
    3c24:	b8 01       	movw	r22, r16
    3c26:	ce 01       	movw	r24, r28
    3c28:	86 df       	rcall	.-244    	; 0x3b36 <u8g_call_dev_fn>
    3c2a:	e9 a9       	ldd	r30, Y+49	; 0x31
    3c2c:	fa a9       	ldd	r31, Y+50	; 0x32
  }
  u8g->state_cb(U8G_STATE_MSG_RESTORE_ENV);
    3c2e:	80 e0       	ldi	r24, 0x00	; 0
    3c30:	19 95       	eicall
    3c32:	8f 2d       	mov	r24, r15
    3c34:	cd b7       	in	r28, 0x3d	; 61
  return r;
}
    3c36:	de b7       	in	r29, 0x3e	; 62
    3c38:	e5 e0       	ldi	r30, 0x05	; 5
    3c3a:	0c 94 c4 6b 	jmp	0xd788	; 0xd788 <__epilogue_restores__+0x1a>

00003c3e <u8g_DrawPixelLL>:
}

void u8g_DrawPixelLL(u8g_t *u8g, u8g_dev_t *dev, u8g_uint_t x, u8g_uint_t y)
{
  u8g_dev_arg_pixel_t *arg = &(u8g->arg_pixel);
  arg->x = x;
    3c3e:	fc 01       	movw	r30, r24
    3c40:	44 8f       	std	Z+28, r20	; 0x1c
  arg->y = y;
    3c42:	25 8f       	std	Z+29, r18	; 0x1d
  return u8g_call_dev_fn(u8g, dev, U8G_DEV_MSG_CONTRAST, &contrast);
}

void u8g_DrawPixelLL(u8g_t *u8g, u8g_dev_t *dev, u8g_uint_t x, u8g_uint_t y)
{
  u8g_dev_arg_pixel_t *arg = &(u8g->arg_pixel);
    3c44:	9c 01       	movw	r18, r24
    3c46:	24 5e       	subi	r18, 0xE4	; 228
    3c48:	3f 4f       	sbci	r19, 0xFF	; 255
  arg->x = x;
  arg->y = y;
  u8g_call_dev_fn(u8g, dev, U8G_DEV_MSG_SET_PIXEL, arg);
    3c4a:	42 e3       	ldi	r20, 0x32	; 50
    3c4c:	74 cf       	rjmp	.-280    	; 0x3b36 <u8g_call_dev_fn>

00003c4e <u8g_GetWidthLL>:
#endif



u8g_uint_t u8g_GetWidthLL(u8g_t *u8g, u8g_dev_t *dev)
{
    3c4e:	a1 e0       	ldi	r26, 0x01	; 1
    3c50:	b0 e0       	ldi	r27, 0x00	; 0
    3c52:	ed e2       	ldi	r30, 0x2D	; 45
    3c54:	fe e1       	ldi	r31, 0x1E	; 30
    3c56:	0c 94 ab 6b 	jmp	0xd756	; 0xd756 <__prologue_saves__+0x20>
  u8g_uint_t r;
  u8g_call_dev_fn(u8g, dev, U8G_DEV_MSG_GET_WIDTH, &r);
    3c5a:	9e 01       	movw	r18, r28
    3c5c:	2f 5f       	subi	r18, 0xFF	; 255
    3c5e:	3f 4f       	sbci	r19, 0xFF	; 255
    3c60:	46 e4       	ldi	r20, 0x46	; 70
    3c62:	69 df       	rcall	.-302    	; 0x3b36 <u8g_call_dev_fn>
    3c64:	89 81       	ldd	r24, Y+1	; 0x01
  return r;
}
    3c66:	21 96       	adiw	r28, 0x01	; 1
    3c68:	e2 e0       	ldi	r30, 0x02	; 2
    3c6a:	0c 94 c7 6b 	jmp	0xd78e	; 0xd78e <__epilogue_restores__+0x20>

00003c6e <u8g_GetHeightLL>:

u8g_uint_t u8g_GetHeightLL(u8g_t *u8g, u8g_dev_t *dev)
{       
    3c6e:	a1 e0       	ldi	r26, 0x01	; 1
    3c70:	b0 e0       	ldi	r27, 0x00	; 0
    3c72:	ed e3       	ldi	r30, 0x3D	; 61
    3c74:	fe e1       	ldi	r31, 0x1E	; 30
    3c76:	0c 94 ab 6b 	jmp	0xd756	; 0xd756 <__prologue_saves__+0x20>
  u8g_uint_t r;
  u8g_call_dev_fn(u8g, dev, U8G_DEV_MSG_GET_HEIGHT, &r);
    3c7a:	9e 01       	movw	r18, r28
    3c7c:	2f 5f       	subi	r18, 0xFF	; 255
    3c7e:	3f 4f       	sbci	r19, 0xFF	; 255
    3c80:	47 e4       	ldi	r20, 0x47	; 71
    3c82:	59 df       	rcall	.-334    	; 0x3b36 <u8g_call_dev_fn>
    3c84:	89 81       	ldd	r24, Y+1	; 0x01
  return r;
}
    3c86:	21 96       	adiw	r28, 0x01	; 1
    3c88:	e2 e0       	ldi	r30, 0x02	; 2
    3c8a:	0c 94 c7 6b 	jmp	0xd78e	; 0xd78e <__epilogue_restores__+0x20>

00003c8e <u8g_GetModeLL>:

u8g_uint_t u8g_GetModeLL(u8g_t *u8g, u8g_dev_t *dev)
{       
  return u8g_call_dev_fn(u8g, dev, U8G_DEV_MSG_GET_MODE, NULL);
    3c8e:	20 e0       	ldi	r18, 0x00	; 0
    3c90:	30 e0       	ldi	r19, 0x00	; 0
    3c92:	48 e4       	ldi	r20, 0x48	; 72
    3c94:	50 cf       	rjmp	.-352    	; 0x3b36 <u8g_call_dev_fn>

00003c96 <u8g_UpdateDimension>:


/*====================================================================*/

void u8g_UpdateDimension(u8g_t *u8g)
{
    3c96:	cf 93       	push	r28
    3c98:	df 93       	push	r29
    3c9a:	ec 01       	movw	r28, r24
  u8g->width = u8g_GetWidthLL(u8g, u8g->dev);
    3c9c:	6a 81       	ldd	r22, Y+2	; 0x02
    3c9e:	7b 81       	ldd	r23, Y+3	; 0x03
    3ca0:	d6 df       	rcall	.-84     	; 0x3c4e <u8g_GetWidthLL>
    3ca2:	88 83       	st	Y, r24
    3ca4:	6a 81       	ldd	r22, Y+2	; 0x02
  u8g->height = u8g_GetHeightLL(u8g, u8g->dev);
    3ca6:	7b 81       	ldd	r23, Y+3	; 0x03
    3ca8:	ce 01       	movw	r24, r28
    3caa:	e1 df       	rcall	.-62     	; 0x3c6e <u8g_GetHeightLL>
    3cac:	89 83       	std	Y+1, r24	; 0x01
    3cae:	6a 81       	ldd	r22, Y+2	; 0x02
    3cb0:	7b 81       	ldd	r23, Y+3	; 0x03
  u8g->mode = u8g_GetModeLL(u8g, u8g->dev);
    3cb2:	ce 01       	movw	r24, r28
    3cb4:	ec df       	rcall	.-40     	; 0x3c8e <u8g_GetModeLL>
    3cb6:	8b 87       	std	Y+11, r24	; 0x0b
    3cb8:	9e 01       	movw	r18, r28
    3cba:	2d 5c       	subi	r18, 0xCD	; 205
    3cbc:	3f 4f       	sbci	r19, 0xFF	; 255
  /* 9 Dec 2012: u8g_scale.c requires update of current page */
  u8g_call_dev_fn(u8g, u8g->dev, U8G_DEV_MSG_GET_PAGE_BOX, &(u8g->current_page));
    3cbe:	6a 81       	ldd	r22, Y+2	; 0x02
    3cc0:	7b 81       	ldd	r23, Y+3	; 0x03
    3cc2:	47 e1       	ldi	r20, 0x17	; 23
    3cc4:	ce 01       	movw	r24, r28
    3cc6:	37 df       	rcall	.-402    	; 0x3b36 <u8g_call_dev_fn>
    3cc8:	df 91       	pop	r29
    3cca:	cf 91       	pop	r28
    3ccc:	08 95       	ret

00003cce <u8g_Begin>:
  u8g->state_cb = u8g_state_dummy_cb;

}

uint8_t u8g_Begin(u8g_t *u8g)
{
    3cce:	cf 93       	push	r28
    3cd0:	df 93       	push	r29
    3cd2:	ec 01       	movw	r28, r24
  /* call and init low level driver and com device */
  if ( u8g_InitLL(u8g, u8g->dev) == 0 )
    3cd4:	6a 81       	ldd	r22, Y+2	; 0x02
    3cd6:	7b 81       	ldd	r23, Y+3	; 0x03
    3cd8:	33 df       	rcall	.-410    	; 0x3b40 <u8g_InitLL>
    3cda:	88 23       	and	r24, r24
    3cdc:	21 f0       	breq	.+8      	; 0x3ce6 <u8g_Begin+0x18>
    3cde:	ce 01       	movw	r24, r28
    return 0;
  /* fetch width and height from the low level */
  u8g_UpdateDimension(u8g);
    3ce0:	da df       	rcall	.-76     	; 0x3c96 <u8g_UpdateDimension>
    3ce2:	81 e0       	ldi	r24, 0x01	; 1
    3ce4:	01 c0       	rjmp	.+2      	; 0x3ce8 <u8g_Begin+0x1a>
  return 1;
    3ce6:	80 e0       	ldi	r24, 0x00	; 0
    3ce8:	df 91       	pop	r29

uint8_t u8g_Begin(u8g_t *u8g)
{
  /* call and init low level driver and com device */
  if ( u8g_InitLL(u8g, u8g->dev) == 0 )
    return 0;
    3cea:	cf 91       	pop	r28
  /* fetch width and height from the low level */
  u8g_UpdateDimension(u8g);
  return 1;
}
    3cec:	08 95       	ret

00003cee <u8g_InitHWSPI>:
  /* issue 146 */
  return u8g_Begin(u8g);
}

uint8_t u8g_InitHWSPI(u8g_t *u8g, u8g_dev_t *dev, uint8_t cs, uint8_t a0, uint8_t reset)
{
    3cee:	cf 92       	push	r12
    3cf0:	df 92       	push	r13
    3cf2:	ef 92       	push	r14
    3cf4:	ff 92       	push	r15
    3cf6:	0f 93       	push	r16
    3cf8:	cf 93       	push	r28
    3cfa:	df 93       	push	r29
    3cfc:	1f 92       	push	r1
    3cfe:	1f 92       	push	r1
    3d00:	cd b7       	in	r28, 0x3d	; 61
    3d02:	de b7       	in	r29, 0x3e	; 62
    3d04:	6c 01       	movw	r12, r24
    3d06:	7b 01       	movw	r14, r22
  /* fill data structure with some suitable values */
  u8g_init_data(u8g);
    3d08:	2a 83       	std	Y+2, r18	; 0x02
    3d0a:	49 83       	std	Y+1, r20	; 0x01
    3d0c:	e8 de       	rcall	.-560    	; 0x3ade <u8g_init_data>
    3d0e:	f6 01       	movw	r30, r12
  u8g->dev = dev;
    3d10:	f3 82       	std	Z+3, r15	; 0x03
    3d12:	e2 82       	std	Z+2, r14	; 0x02
    3d14:	49 81       	ldd	r20, Y+1	; 0x01
  
  
  /* assign user pins */
  u8g->pin_list[U8G_PI_CS] = cs;
    3d16:	45 a3       	std	Z+37, r20	; 0x25
    3d18:	2a 81       	ldd	r18, Y+2	; 0x02
  u8g->pin_list[U8G_PI_A0] = a0;
    3d1a:	24 a3       	std	Z+36, r18	; 0x24
    3d1c:	03 a3       	std	Z+35, r16	; 0x23
  u8g->pin_list[U8G_PI_RESET] = reset;
    3d1e:	c6 01       	movw	r24, r12
  
  return u8g_Begin(u8g);
    3d20:	d6 df       	rcall	.-84     	; 0x3cce <u8g_Begin>
    3d22:	0f 90       	pop	r0
    3d24:	0f 90       	pop	r0
}
    3d26:	df 91       	pop	r29
    3d28:	cf 91       	pop	r28
    3d2a:	0f 91       	pop	r16
    3d2c:	ff 90       	pop	r15
    3d2e:	ef 90       	pop	r14
    3d30:	df 90       	pop	r13
    3d32:	cf 90       	pop	r12
    3d34:	08 95       	ret

00003d36 <u8g_FirstPage>:
}
#endif /* defined(U8G_WITH_PINLIST)  */

void u8g_FirstPage(u8g_t *u8g)
{
  u8g_FirstPageLL(u8g, u8g->dev);
    3d36:	fc 01       	movw	r30, r24
    3d38:	62 81       	ldd	r22, Z+2	; 0x02
    3d3a:	73 81       	ldd	r23, Z+3	; 0x03
    3d3c:	33 cf       	rjmp	.-410    	; 0x3ba4 <u8g_FirstPageLL>

00003d3e <u8g_NextPage>:
}

uint8_t u8g_NextPage(u8g_t *u8g)
{
    3d3e:	cf 93       	push	r28
    3d40:	df 93       	push	r29
    3d42:	ec 01       	movw	r28, r24
  if  ( u8g->cursor_fn != (u8g_draw_cursor_fn)0 )
    3d44:	ee 85       	ldd	r30, Y+14	; 0x0e
    3d46:	ff 85       	ldd	r31, Y+15	; 0x0f
    3d48:	30 97       	sbiw	r30, 0x00	; 0
    3d4a:	09 f0       	breq	.+2      	; 0x3d4e <u8g_NextPage+0x10>
  {
    u8g->cursor_fn(u8g);
    3d4c:	19 95       	eicall
  }
  return u8g_NextPageLL(u8g, u8g->dev);
    3d4e:	6a 81       	ldd	r22, Y+2	; 0x02
    3d50:	7b 81       	ldd	r23, Y+3	; 0x03
    3d52:	ce 01       	movw	r24, r28
    3d54:	4b df       	rcall	.-362    	; 0x3bec <u8g_NextPageLL>
    3d56:	df 91       	pop	r29
}
    3d58:	cf 91       	pop	r28
    3d5a:	08 95       	ret

00003d5c <u8g_DrawPixel>:
  u8g_call_dev_fn(u8g, u8g->dev, U8G_DEV_MSG_SLEEP_OFF, NULL);
}


void u8g_DrawPixel(u8g_t *u8g, u8g_uint_t x, u8g_uint_t y)
{
    3d5c:	36 2f       	mov	r19, r22
    3d5e:	24 2f       	mov	r18, r20
  u8g_DrawPixelLL(u8g, u8g->dev, x, y);
    3d60:	fc 01       	movw	r30, r24
    3d62:	62 81       	ldd	r22, Z+2	; 0x02
    3d64:	73 81       	ldd	r23, Z+3	; 0x03
    3d66:	43 2f       	mov	r20, r19
    3d68:	6a cf       	rjmp	.-300    	; 0x3c3e <u8g_DrawPixelLL>

00003d6a <u8g_Draw8Pixel>:
}

void u8g_Draw8Pixel(u8g_t *u8g, u8g_uint_t x, u8g_uint_t y, uint8_t dir, uint8_t pixel)
{
    3d6a:	0f 93       	push	r16
    3d6c:	fc 01       	movw	r30, r24
  u8g_Draw8PixelLL(u8g, u8g->dev, x, y, dir, pixel);
    3d6e:	82 81       	ldd	r24, Z+2	; 0x02
    3d70:	93 81       	ldd	r25, Z+3	; 0x03
}

void u8g_Draw8PixelLL(u8g_t *u8g, u8g_dev_t *dev, u8g_uint_t x, u8g_uint_t y, uint8_t dir, uint8_t pixel)
{
  u8g_dev_arg_pixel_t *arg = &(u8g->arg_pixel);
  arg->x = x;
    3d72:	64 8f       	std	Z+28, r22	; 0x1c
  arg->y = y;
    3d74:	45 8f       	std	Z+29, r20	; 0x1d
  arg->dir = dir;
    3d76:	27 8f       	std	Z+31, r18	; 0x1f
  arg->pixel = pixel;
    3d78:	06 8f       	std	Z+30, r16	; 0x1e
  u8g_call_dev_fn(u8g, dev, U8G_DEV_MSG_SET_PIXEL, arg);
}

void u8g_Draw8PixelLL(u8g_t *u8g, u8g_dev_t *dev, u8g_uint_t x, u8g_uint_t y, uint8_t dir, uint8_t pixel)
{
  u8g_dev_arg_pixel_t *arg = &(u8g->arg_pixel);
    3d7a:	9f 01       	movw	r18, r30
    3d7c:	24 5e       	subi	r18, 0xE4	; 228
    3d7e:	3f 4f       	sbci	r19, 0xFF	; 255
  arg->x = x;
  arg->y = y;
  arg->dir = dir;
  arg->pixel = pixel;
  u8g_call_dev_fn(u8g, dev, U8G_DEV_MSG_SET_8PIXEL, arg);
    3d80:	4b e3       	ldi	r20, 0x3B	; 59
    3d82:	bc 01       	movw	r22, r24
    3d84:	cf 01       	movw	r24, r30
    3d86:	d7 de       	rcall	.-594    	; 0x3b36 <u8g_call_dev_fn>
    3d88:	0f 91       	pop	r16
}

void u8g_Draw8Pixel(u8g_t *u8g, u8g_uint_t x, u8g_uint_t y, uint8_t dir, uint8_t pixel)
{
  u8g_Draw8PixelLL(u8g, u8g->dev, x, y, dir, pixel);
}
    3d8a:	08 95       	ret

00003d8c <u8g_draw_hline>:
*/

#include "u8g.h"

void u8g_draw_hline(u8g_t *u8g, u8g_uint_t x, u8g_uint_t y, u8g_uint_t w)
{
    3d8c:	af 92       	push	r10
    3d8e:	bf 92       	push	r11
    3d90:	df 92       	push	r13
    3d92:	ef 92       	push	r14
    3d94:	ff 92       	push	r15
    3d96:	0f 93       	push	r16
    3d98:	1f 93       	push	r17
    3d9a:	cf 93       	push	r28
    3d9c:	df 93       	push	r29
    3d9e:	1f 92       	push	r1
    3da0:	cd b7       	in	r28, 0x3d	; 61
    3da2:	de b7       	in	r29, 0x3e	; 62
    3da4:	5c 01       	movw	r10, r24
    3da6:	e6 2e       	mov	r14, r22
    3da8:	f4 2e       	mov	r15, r20
    3daa:	12 2f       	mov	r17, r18
  uint8_t pixel = 0x0ff;
  while( w >= 8 )
    3dac:	32 2f       	mov	r19, r18
    3dae:	d6 2e       	mov	r13, r22
    3db0:	d2 0e       	add	r13, r18
    3db2:	6d 2d       	mov	r22, r13
    3db4:	63 1b       	sub	r22, r19
    3db6:	38 30       	cpi	r19, 0x08	; 8
    3db8:	48 f0       	brcs	.+18     	; 0x3dcc <u8g_draw_hline+0x40>
  {
    u8g_Draw8Pixel(u8g, x, y, 0, pixel);
    3dba:	0f ef       	ldi	r16, 0xFF	; 255
    3dbc:	20 e0       	ldi	r18, 0x00	; 0
    3dbe:	4f 2d       	mov	r20, r15
    3dc0:	c5 01       	movw	r24, r10
    3dc2:	39 83       	std	Y+1, r19	; 0x01
    3dc4:	d2 df       	rcall	.-92     	; 0x3d6a <u8g_Draw8Pixel>
    3dc6:	39 81       	ldd	r19, Y+1	; 0x01
    w-=8;
    3dc8:	38 50       	subi	r19, 0x08	; 8
    3dca:	f3 cf       	rjmp	.-26     	; 0x3db2 <u8g_draw_hline+0x26>
    3dcc:	61 2f       	mov	r22, r17
    3dce:	68 7f       	andi	r22, 0xF8	; 248
    3dd0:	6e 0d       	add	r22, r14
    3dd2:	17 70       	andi	r17, 0x07	; 7
    3dd4:	71 f0       	breq	.+28     	; 0x3df2 <u8g_draw_hline+0x66>
    x+=8;
  }
  if ( w != 0 )
    3dd6:	87 e0       	ldi	r24, 0x07	; 7
  {
    w ^=7;
    3dd8:	81 27       	eor	r24, r17
    3dda:	8f 5f       	subi	r24, 0xFF	; 255
    w++;
    3ddc:	87 70       	andi	r24, 0x07	; 7
    pixel <<= w&7;
    3dde:	0f ef       	ldi	r16, 0xFF	; 255
    3de0:	10 e0       	ldi	r17, 0x00	; 0
    3de2:	01 c0       	rjmp	.+2      	; 0x3de6 <u8g_draw_hline+0x5a>
    3de4:	00 0f       	add	r16, r16
    3de6:	8a 95       	dec	r24
    3de8:	ea f7       	brpl	.-6      	; 0x3de4 <u8g_draw_hline+0x58>
    3dea:	20 e0       	ldi	r18, 0x00	; 0
    u8g_Draw8Pixel(u8g, x, y, 0, pixel);
    3dec:	4f 2d       	mov	r20, r15
    3dee:	c5 01       	movw	r24, r10
    3df0:	bc df       	rcall	.-136    	; 0x3d6a <u8g_Draw8Pixel>
    3df2:	0f 90       	pop	r0
    3df4:	df 91       	pop	r29
  }
}
    3df6:	cf 91       	pop	r28
    3df8:	1f 91       	pop	r17
    3dfa:	0f 91       	pop	r16
    3dfc:	ff 90       	pop	r15
    3dfe:	ef 90       	pop	r14
    3e00:	df 90       	pop	r13
    3e02:	bf 90       	pop	r11
    3e04:	af 90       	pop	r10
    3e06:	08 95       	ret

00003e08 <u8g_draw_vline>:

void u8g_draw_vline(u8g_t *u8g, u8g_uint_t x, u8g_uint_t y, u8g_uint_t h)
{
    3e08:	af 92       	push	r10
    3e0a:	bf 92       	push	r11
    3e0c:	df 92       	push	r13
    3e0e:	ef 92       	push	r14
    3e10:	ff 92       	push	r15
    3e12:	0f 93       	push	r16
    3e14:	1f 93       	push	r17
    3e16:	cf 93       	push	r28
    3e18:	df 93       	push	r29
    3e1a:	1f 92       	push	r1
    3e1c:	cd b7       	in	r28, 0x3d	; 61
    3e1e:	de b7       	in	r29, 0x3e	; 62
    3e20:	5c 01       	movw	r10, r24
    3e22:	f6 2e       	mov	r15, r22
    3e24:	e4 2e       	mov	r14, r20
    3e26:	12 2f       	mov	r17, r18
  uint8_t pixel = 0x0ff;
  while( h >= 8 )
    3e28:	32 2f       	mov	r19, r18
    3e2a:	d4 2e       	mov	r13, r20
    3e2c:	d2 0e       	add	r13, r18
    3e2e:	4d 2d       	mov	r20, r13
    3e30:	43 1b       	sub	r20, r19
    3e32:	38 30       	cpi	r19, 0x08	; 8
    3e34:	48 f0       	brcs	.+18     	; 0x3e48 <u8g_draw_vline+0x40>
  {
    u8g_Draw8Pixel(u8g, x, y, 1, pixel);
    3e36:	0f ef       	ldi	r16, 0xFF	; 255
    3e38:	21 e0       	ldi	r18, 0x01	; 1
    3e3a:	6f 2d       	mov	r22, r15
    3e3c:	c5 01       	movw	r24, r10
    3e3e:	39 83       	std	Y+1, r19	; 0x01
    3e40:	94 df       	rcall	.-216    	; 0x3d6a <u8g_Draw8Pixel>
    3e42:	39 81       	ldd	r19, Y+1	; 0x01
    h-=8;
    3e44:	38 50       	subi	r19, 0x08	; 8
    3e46:	f3 cf       	rjmp	.-26     	; 0x3e2e <u8g_draw_vline+0x26>
    3e48:	41 2f       	mov	r20, r17
    3e4a:	48 7f       	andi	r20, 0xF8	; 248
    3e4c:	4e 0d       	add	r20, r14
    3e4e:	17 70       	andi	r17, 0x07	; 7
    3e50:	71 f0       	breq	.+28     	; 0x3e6e <u8g_draw_vline+0x66>
    y+=8;
  }
  if ( h != 0 )
    3e52:	87 e0       	ldi	r24, 0x07	; 7
  {
    h ^=7;
    3e54:	81 27       	eor	r24, r17
    3e56:	8f 5f       	subi	r24, 0xFF	; 255
    h++;
    3e58:	87 70       	andi	r24, 0x07	; 7
    pixel <<= h&7;
    3e5a:	0f ef       	ldi	r16, 0xFF	; 255
    3e5c:	10 e0       	ldi	r17, 0x00	; 0
    3e5e:	01 c0       	rjmp	.+2      	; 0x3e62 <u8g_draw_vline+0x5a>
    3e60:	00 0f       	add	r16, r16
    3e62:	8a 95       	dec	r24
    3e64:	ea f7       	brpl	.-6      	; 0x3e60 <u8g_draw_vline+0x58>
    3e66:	21 e0       	ldi	r18, 0x01	; 1
    u8g_Draw8Pixel(u8g, x, y, 1, pixel);
    3e68:	6f 2d       	mov	r22, r15
    3e6a:	c5 01       	movw	r24, r10
    3e6c:	7e df       	rcall	.-260    	; 0x3d6a <u8g_Draw8Pixel>
    3e6e:	0f 90       	pop	r0
    3e70:	df 91       	pop	r29
  }
}
    3e72:	cf 91       	pop	r28
    3e74:	1f 91       	pop	r17
    3e76:	0f 91       	pop	r16
    3e78:	ff 90       	pop	r15
    3e7a:	ef 90       	pop	r14
    3e7c:	df 90       	pop	r13
    3e7e:	bf 90       	pop	r11
    3e80:	af 90       	pop	r10
    3e82:	08 95       	ret

00003e84 <u8g_DrawHLine>:

void u8g_DrawHLine(u8g_t *u8g, u8g_uint_t x, u8g_uint_t y, u8g_uint_t w)
{
    3e84:	ef 92       	push	r14
    3e86:	ff 92       	push	r15
    3e88:	0f 93       	push	r16
    3e8a:	1f 93       	push	r17
    3e8c:	cf 93       	push	r28
    3e8e:	df 93       	push	r29
    3e90:	ec 01       	movw	r28, r24
    3e92:	16 2f       	mov	r17, r22
    3e94:	f4 2e       	mov	r15, r20
    3e96:	e2 2e       	mov	r14, r18
  if ( u8g_IsBBXIntersection(u8g, x, y, w, 1) == 0 )
    3e98:	01 e0       	ldi	r16, 0x01	; 1
    3e9a:	0e 94 bd 63 	call	0xc77a	; 0xc77a <u8g_IsBBXIntersection>
    3e9e:	88 23       	and	r24, r24
    3ea0:	29 f0       	breq	.+10     	; 0x3eac <u8g_DrawHLine+0x28>
    return;
  u8g_draw_hline(u8g, x, y, w);
    3ea2:	2e 2d       	mov	r18, r14
    3ea4:	4f 2d       	mov	r20, r15
    3ea6:	61 2f       	mov	r22, r17
    3ea8:	ce 01       	movw	r24, r28
    3eaa:	70 df       	rcall	.-288    	; 0x3d8c <u8g_draw_hline>
    3eac:	cd b7       	in	r28, 0x3d	; 61
}
    3eae:	de b7       	in	r29, 0x3e	; 62
    3eb0:	e6 e0       	ldi	r30, 0x06	; 6
    3eb2:	0c 94 c3 6b 	jmp	0xd786	; 0xd786 <__epilogue_restores__+0x18>

00003eb6 <u8g_DrawVLine>:

void u8g_DrawVLine(u8g_t *u8g, u8g_uint_t x, u8g_uint_t y, u8g_uint_t w)
{
    3eb6:	ef 92       	push	r14
    3eb8:	ff 92       	push	r15
    3eba:	0f 93       	push	r16
    3ebc:	1f 93       	push	r17
    3ebe:	cf 93       	push	r28
    3ec0:	df 93       	push	r29
    3ec2:	ec 01       	movw	r28, r24
    3ec4:	16 2f       	mov	r17, r22
    3ec6:	f4 2e       	mov	r15, r20
    3ec8:	e2 2e       	mov	r14, r18
  if ( u8g_IsBBXIntersection(u8g, x, y, 1, w) == 0 )
    3eca:	02 2f       	mov	r16, r18
    3ecc:	21 e0       	ldi	r18, 0x01	; 1
    3ece:	0e 94 bd 63 	call	0xc77a	; 0xc77a <u8g_IsBBXIntersection>
    3ed2:	88 23       	and	r24, r24
    3ed4:	29 f0       	breq	.+10     	; 0x3ee0 <u8g_DrawVLine+0x2a>
    return;
  u8g_draw_vline(u8g, x, y, w);
    3ed6:	2e 2d       	mov	r18, r14
    3ed8:	4f 2d       	mov	r20, r15
    3eda:	61 2f       	mov	r22, r17
    3edc:	ce 01       	movw	r24, r28
    3ede:	94 df       	rcall	.-216    	; 0x3e08 <u8g_draw_vline>
    3ee0:	cd b7       	in	r28, 0x3d	; 61
}
    3ee2:	de b7       	in	r29, 0x3e	; 62
    3ee4:	e6 e0       	ldi	r30, 0x06	; 6
    3ee6:	0c 94 c3 6b 	jmp	0xd786	; 0xd786 <__epilogue_restores__+0x18>

00003eea <u8g_DrawFrame>:

/* restrictions: w > 0 && h > 0 */
void u8g_DrawFrame(u8g_t *u8g, u8g_uint_t x, u8g_uint_t y, u8g_uint_t w, u8g_uint_t h)
{
    3eea:	df 92       	push	r13
    3eec:	ef 92       	push	r14
    3eee:	ff 92       	push	r15
    3ef0:	0f 93       	push	r16
    3ef2:	1f 93       	push	r17
    3ef4:	cf 93       	push	r28
    3ef6:	df 93       	push	r29
    3ef8:	ec 01       	movw	r28, r24
    3efa:	16 2f       	mov	r17, r22
    3efc:	f4 2e       	mov	r15, r20
    3efe:	e2 2e       	mov	r14, r18
    3f00:	d0 2e       	mov	r13, r16
  u8g_uint_t xtmp = x;
  
  if ( u8g_IsBBXIntersection(u8g, x, y, w, h) == 0 )
    3f02:	0e 94 bd 63 	call	0xc77a	; 0xc77a <u8g_IsBBXIntersection>
    3f06:	88 23       	and	r24, r24
    3f08:	c1 f0       	breq	.+48     	; 0x3f3a <u8g_DrawFrame+0x50>
    return;

  
  u8g_draw_hline(u8g, x, y, w);
    3f0a:	2e 2d       	mov	r18, r14
    3f0c:	4f 2d       	mov	r20, r15
    3f0e:	61 2f       	mov	r22, r17
    3f10:	ce 01       	movw	r24, r28
    3f12:	3c df       	rcall	.-392    	; 0x3d8c <u8g_draw_hline>
    3f14:	2d 2d       	mov	r18, r13
  u8g_draw_vline(u8g, x, y, h);
    3f16:	4f 2d       	mov	r20, r15
    3f18:	61 2f       	mov	r22, r17
    3f1a:	ce 01       	movw	r24, r28
    3f1c:	75 df       	rcall	.-278    	; 0x3e08 <u8g_draw_vline>
    3f1e:	6f ef       	ldi	r22, 0xFF	; 255
    3f20:	6e 0d       	add	r22, r14
  x+=w;
    3f22:	61 0f       	add	r22, r17
    3f24:	2d 2d       	mov	r18, r13
  x--;
    3f26:	4f 2d       	mov	r20, r15
  u8g_draw_vline(u8g, x, y, h);
    3f28:	ce 01       	movw	r24, r28
    3f2a:	6e df       	rcall	.-292    	; 0x3e08 <u8g_draw_vline>
    3f2c:	4f ef       	ldi	r20, 0xFF	; 255
    3f2e:	4d 0d       	add	r20, r13
    3f30:	4f 0d       	add	r20, r15
  y+=h;
    3f32:	2e 2d       	mov	r18, r14
    3f34:	61 2f       	mov	r22, r17
  y--;
    3f36:	ce 01       	movw	r24, r28
  u8g_draw_hline(u8g, xtmp, y, w);
    3f38:	29 df       	rcall	.-430    	; 0x3d8c <u8g_draw_hline>
    3f3a:	cd b7       	in	r28, 0x3d	; 61
    3f3c:	de b7       	in	r29, 0x3e	; 62
    3f3e:	e7 e0       	ldi	r30, 0x07	; 7
    3f40:	0c 94 c2 6b 	jmp	0xd784	; 0xd784 <__epilogue_restores__+0x16>

00003f44 <u8g_draw_box>:
}

void u8g_draw_box(u8g_t *u8g, u8g_uint_t x, u8g_uint_t y, u8g_uint_t w, u8g_uint_t h)
{
    3f44:	ef 92       	push	r14
    3f46:	ff 92       	push	r15
    3f48:	0f 93       	push	r16
    3f4a:	1f 93       	push	r17
    3f4c:	cf 93       	push	r28
    3f4e:	df 93       	push	r29
    3f50:	ec 01       	movw	r28, r24
    3f52:	f6 2e       	mov	r15, r22
    3f54:	e2 2e       	mov	r14, r18
    3f56:	14 2f       	mov	r17, r20
    3f58:	04 0f       	add	r16, r20
  do
  { 
    u8g_draw_hline(u8g, x, y, w);
    3f5a:	2e 2d       	mov	r18, r14
    3f5c:	41 2f       	mov	r20, r17
    3f5e:	6f 2d       	mov	r22, r15
    3f60:	ce 01       	movw	r24, r28
    3f62:	14 df       	rcall	.-472    	; 0x3d8c <u8g_draw_hline>
    3f64:	1f 5f       	subi	r17, 0xFF	; 255
    y++;    
    3f66:	01 13       	cpse	r16, r17
    h--;
  } while( h != 0 );
    3f68:	f8 cf       	rjmp	.-16     	; 0x3f5a <u8g_draw_box+0x16>
    3f6a:	cd b7       	in	r28, 0x3d	; 61
}
    3f6c:	de b7       	in	r29, 0x3e	; 62
    3f6e:	e6 e0       	ldi	r30, 0x06	; 6
    3f70:	0c 94 c3 6b 	jmp	0xd786	; 0xd786 <__epilogue_restores__+0x18>

00003f74 <u8g_DrawBox>:

/* restrictions: h > 0 */
void u8g_DrawBox(u8g_t *u8g, u8g_uint_t x, u8g_uint_t y, u8g_uint_t w, u8g_uint_t h)
{
    3f74:	df 92       	push	r13
    3f76:	ef 92       	push	r14
    3f78:	ff 92       	push	r15
    3f7a:	0f 93       	push	r16
    3f7c:	1f 93       	push	r17
    3f7e:	cf 93       	push	r28
    3f80:	df 93       	push	r29
    3f82:	ec 01       	movw	r28, r24
    3f84:	16 2f       	mov	r17, r22
    3f86:	f4 2e       	mov	r15, r20
    3f88:	e2 2e       	mov	r14, r18
    3f8a:	d0 2e       	mov	r13, r16
  if ( u8g_IsBBXIntersection(u8g, x, y, w, h) == 0 )
    3f8c:	0e 94 bd 63 	call	0xc77a	; 0xc77a <u8g_IsBBXIntersection>
    3f90:	88 23       	and	r24, r24
    3f92:	29 f0       	breq	.+10     	; 0x3f9e <u8g_DrawBox+0x2a>
    return;
  u8g_draw_box(u8g, x, y, w, h);
    3f94:	2e 2d       	mov	r18, r14
    3f96:	4f 2d       	mov	r20, r15
    3f98:	61 2f       	mov	r22, r17
    3f9a:	ce 01       	movw	r24, r28
    3f9c:	d3 df       	rcall	.-90     	; 0x3f44 <u8g_draw_box>
    3f9e:	cd b7       	in	r28, 0x3d	; 61
}
    3fa0:	de b7       	in	r29, 0x3e	; 62
    3fa2:	e7 e0       	ldi	r30, 0x07	; 7
    3fa4:	0c 94 c2 6b 	jmp	0xd784	; 0xd784 <__epilogue_restores__+0x16>

00003fa8 <u8g_state_dummy_cb>:

#include <stddef.h>
#include "u8g.h"

void u8g_state_dummy_cb(uint8_t msg)
{
    3fa8:	08 95       	ret

00003faa <bt_putStr>:

	uart_putc(ch);
}

void bt_putStr(const char *s)
{
    3faa:	cf 93       	push	r28
    3fac:	df 93       	push	r29
	timer_bt_is_busy = TIMER_BT_IS_BUSY;
    3fae:	2f e7       	ldi	r18, 0x7F	; 127
    3fb0:	20 93 4f 05 	sts	0x054F, r18
    3fb4:	ec 01       	movw	r28, r24

	while (*s) 
    3fb6:	89 91       	ld	r24, Y+
    3fb8:	88 23       	and	r24, r24
    3fba:	19 f0       	breq	.+6      	; 0x3fc2 <bt_putStr+0x18>
      uart_putc(*s++);
    3fbc:	0e 94 d9 5e 	call	0xbdb2	; 0xbdb2 <uart_putc>
    3fc0:	fa cf       	rjmp	.-12     	; 0x3fb6 <bt_putStr+0xc>
}
    3fc2:	df 91       	pop	r29
    3fc4:	cf 91       	pop	r28
    3fc6:	08 95       	ret

00003fc8 <bt_putStr_P>:

void bt_putStr_P(const char *progmem_s)
{
    3fc8:	cf 93       	push	r28
    3fca:	df 93       	push	r29
	timer_bt_is_busy = TIMER_BT_IS_BUSY;
    3fcc:	2f e7       	ldi	r18, 0x7F	; 127
    3fce:	20 93 4f 05 	sts	0x054F, r18

	register char c;
    
  while ( (c = pgm_read_byte(progmem_s++)) ) 
    3fd2:	fc 01       	movw	r30, r24
    3fd4:	84 91       	lpm	r24, Z
    3fd6:	ef 01       	movw	r28, r30
    3fd8:	21 96       	adiw	r28, 0x01	; 1
    3fda:	88 23       	and	r24, r24
    3fdc:	21 f0       	breq	.+8      	; 0x3fe6 <bt_putStr_P+0x1e>
    uart_putc(c);
    3fde:	0e 94 d9 5e 	call	0xbdb2	; 0xbdb2 <uart_putc>
    3fe2:	fe 01       	movw	r30, r28
    3fe4:	f7 cf       	rjmp	.-18     	; 0x3fd4 <bt_putStr_P+0xc>
}
    3fe6:	df 91       	pop	r29
    3fe8:	cf 91       	pop	r28
    3fea:	08 95       	ret

00003fec <bt_putLong>:

void bt_putLong(int32_t num)
{
    3fec:	af e0       	ldi	r26, 0x0F	; 15
    3fee:	b0 e0       	ldi	r27, 0x00	; 0
    3ff0:	ec ef       	ldi	r30, 0xFC	; 252
    3ff2:	ff e1       	ldi	r31, 0x1F	; 31
    3ff4:	0c 94 ab 6b 	jmp	0xd756	; 0xd756 <__prologue_saves__+0x20>
	char buffer[15];
	ltoa( num , buffer, 10);
    3ff8:	2a e0       	ldi	r18, 0x0A	; 10
    3ffa:	30 e0       	ldi	r19, 0x00	; 0
    3ffc:	ae 01       	movw	r20, r28
    3ffe:	4f 5f       	subi	r20, 0xFF	; 255
    4000:	5f 4f       	sbci	r21, 0xFF	; 255
    4002:	0e 94 12 6c 	call	0xd824	; 0xd824 <ltoa>
	bt_putStr(buffer);
    4006:	ce 01       	movw	r24, r28
    4008:	01 96       	adiw	r24, 0x01	; 1
    400a:	cf df       	rcall	.-98     	; 0x3faa <bt_putStr>
    400c:	2f 96       	adiw	r28, 0x0f	; 15
}
    400e:	e2 e0       	ldi	r30, 0x02	; 2
    4010:	0c 94 c7 6b 	jmp	0xd78e	; 0xd78e <__epilogue_restores__+0x20>

00004014 <u8g_DrawLong>:
#include "victim.h"

//////////////////////////////////////////////////////////////////////////////

void u8g_DrawLong(uint8_t koord_x, uint8_t koord_y, int32_t num)
{
    4014:	af e0       	ldi	r26, 0x0F	; 15
    4016:	b0 e0       	ldi	r27, 0x00	; 0
    4018:	e0 e1       	ldi	r30, 0x10	; 16
    401a:	f0 e2       	ldi	r31, 0x20	; 32
    401c:	0c 94 a9 6b 	jmp	0xd752	; 0xd752 <__prologue_saves__+0x1c>
    4020:	18 2f       	mov	r17, r24
    4022:	06 2f       	mov	r16, r22
    4024:	ca 01       	movw	r24, r20
    4026:	b9 01       	movw	r22, r18
  char buffer[15];
	ltoa( num , buffer, 10);
    4028:	2a e0       	ldi	r18, 0x0A	; 10
    402a:	30 e0       	ldi	r19, 0x00	; 0
    402c:	ae 01       	movw	r20, r28
    402e:	4f 5f       	subi	r20, 0xFF	; 255
    4030:	5f 4f       	sbci	r21, 0xFF	; 255
    4032:	0e 94 12 6c 	call	0xd824	; 0xd824 <ltoa>
  u8g_DrawStr(&u8g, koord_x, koord_y, buffer);
    4036:	9e 01       	movw	r18, r28
    4038:	2f 5f       	subi	r18, 0xFF	; 255
    403a:	3f 4f       	sbci	r19, 0xFF	; 255
    403c:	40 2f       	mov	r20, r16
    403e:	61 2f       	mov	r22, r17
    4040:	8b e1       	ldi	r24, 0x1B	; 27
    4042:	97 e0       	ldi	r25, 0x07	; 7
    4044:	b4 dc       	rcall	.-1688   	; 0x39ae <u8g_DrawStr>
    4046:	2f 96       	adiw	r28, 0x0f	; 15
}
    4048:	e4 e0       	ldi	r30, 0x04	; 4
    404a:	0c 94 c5 6b 	jmp	0xd78a	; 0xd78a <__epilogue_restores__+0x1c>

0000404e <u8g_DrawStartUp>:
};

uint8_t sm_logo = 0; //Logo fertig? StateMachine

void u8g_DrawStartUp(void) //,,Verschnerung" zum Zeit ,,schinden" am Anfang fr UM6
{
    404e:	ef 92       	push	r14
    4050:	ff 92       	push	r15
    4052:	0f 93       	push	r16
    4054:	cf 93       	push	r28
	if((mcusr_mirror & (1<<0)) ||
    4056:	80 91 d7 05 	lds	r24, 0x05D7
    405a:	80 ff       	sbrs	r24, 0
    405c:	02 c0       	rjmp	.+4      	; 0x4062 <u8g_DrawStartUp+0x14>
						case 5:	u8g_DrawXBMP(&u8g, 91, 2, 29, 29, logo_a4);		//20ms
										break;
						case 6:	u8g_DrawXBMP(&u8g, 0, 0, 128, 29, logo);			//1000ms
										break;
						default: 	if(debug > 1){bt_putStr_P(PSTR("\n\r")); bt_putLong(timer); bt_putStr_P(PSTR(": ERROR::FATAL:WENT_INTO:switch[disp.01]:DEFAULT_CASE"));}
											fatal_err = 1;
    405e:	c1 e0       	ldi	r28, 0x01	; 1
    4060:	59 c0       	rjmp	.+178    	; 0x4114 <u8g_DrawStartUp+0xc6>

uint8_t sm_logo = 0; //Logo fertig? StateMachine

void u8g_DrawStartUp(void) //,,Verschnerung" zum Zeit ,,schinden" am Anfang fr UM6
{
	if((mcusr_mirror & (1<<0)) ||
    4062:	80 91 64 05 	lds	r24, 0x0564
    4066:	81 11       	cpse	r24, r1
    4068:	fa cf       	rjmp	.-12     	; 0x405e <u8g_DrawStartUp+0x10>
    406a:	0f c1       	rjmp	.+542    	; 0x428a <u8g_DrawStartUp+0x23c>
			 	if(!check_res) //Normaler Start
				{
					/////Logo (Animation)
					switch(sm_logo)
					{
						case 0:	u8g_DrawXBMP(&u8g, 5, 5, 118, 29, logo_rios); //500ms
    406c:	73 ee       	ldi	r23, 0xE3	; 227
    406e:	e7 2e       	mov	r14, r23
    4070:	7d e1       	ldi	r23, 0x1D	; 29
    4072:	f7 2e       	mov	r15, r23
    4074:	0d e1       	ldi	r16, 0x1D	; 29
    4076:	26 e7       	ldi	r18, 0x76	; 118
    4078:	45 e0       	ldi	r20, 0x05	; 5
    407a:	65 e0       	ldi	r22, 0x05	; 5
										break;
						case 1:	u8g_DrawXBMP(&u8g, 14, 2, 99, 42, logo_rcj); //500ms
    407c:	8b e1       	ldi	r24, 0x1B	; 27
    407e:	97 e0       	ldi	r25, 0x07	; 7
    4080:	0e 94 59 63 	call	0xc6b2	; 0xc6b2 <u8g_DrawXBMP>
										break;
						default: 	if(debug > 1){bt_putStr_P(PSTR("\n\r")); bt_putLong(timer); bt_putStr_P(PSTR(": ERROR::FATAL:WENT_INTO:switch[disp.01]:DEFAULT_CASE"));}
											fatal_err = 1;
					}
					///////Text/////
					u8g_SetFont(&u8g, u8g_font_6x10); //Schriftart
    4084:	6d ee       	ldi	r22, 0xED	; 237
    4086:	76 e0       	ldi	r23, 0x06	; 6
    4088:	8b e1       	ldi	r24, 0x1B	; 27
    408a:	97 e0       	ldi	r25, 0x07	; 7
    408c:	15 dd       	rcall	.-1494   	; 0x3ab8 <u8g_SetFont>
    408e:	2a ed       	ldi	r18, 0xDA	; 218
					u8g_DrawStr(&u8g, 20, 	55, "Calibrate IMU...");
    4090:	32 e0       	ldi	r19, 0x02	; 2
    4092:	47 e3       	ldi	r20, 0x37	; 55
    4094:	64 e1       	ldi	r22, 0x14	; 20
    4096:	8b e1       	ldi	r24, 0x1B	; 27
    4098:	97 e0       	ldi	r25, 0x07	; 7
    409a:	89 dc       	rcall	.-1774   	; 0x39ae <u8g_DrawStr>
    409c:	6f e8       	ldi	r22, 0x8F	; 143
    409e:	74 e1       	ldi	r23, 0x14	; 20
	
					u8g_SetFont(&u8g, u8g_font_4x6); //Schriftart
    40a0:	8b e1       	ldi	r24, 0x1B	; 27
    40a2:	97 e0       	ldi	r25, 0x07	; 7
    40a4:	09 dd       	rcall	.-1518   	; 0x3ab8 <u8g_SetFont>
    40a6:	80 91 d7 05 	lds	r24, 0x05D7
    40aa:	80 ff       	sbrs	r24, 0

					if(mcusr_mirror & (1<<0))
    40ac:	96 c0       	rjmp	.+300    	; 0x41da <u8g_DrawStartUp+0x18c>
    40ae:	2b ee       	ldi	r18, 0xEB	; 235
    40b0:	32 e0       	ldi	r19, 0x02	; 2
    40b2:	40 e4       	ldi	r20, 0x40	; 64
						u8g_DrawStr(&u8g, 40, 	64, "ResSRC: PORF"); //Power-on Reset Flag
    40b4:	68 e2       	ldi	r22, 0x28	; 40
    40b6:	8b e1       	ldi	r24, 0x1B	; 27
					else if(mcusr_mirror & (1<<1))
						u8g_DrawStr(&u8g, 40, 	64, "ResSRC: EXTRF"); //External Reset Flag
					else if(mcusr_mirror & (1<<2))
						u8g_DrawStr(&u8g, 40, 	64, "ResSRC: BORF"); //Brown-out Reset Flag
					else if(mcusr_mirror & (1<<4))
						u8g_DrawStr(&u8g, 40, 	64, "ResSRC: JTRF"); //JTAG Reset Flag
    40b8:	97 e0       	ldi	r25, 0x07	; 7
    40ba:	79 dc       	rcall	.-1806   	; 0x39ae <u8g_DrawStr>
    40bc:	20 e2       	ldi	r18, 0x20	; 32
    40be:	33 e0       	ldi	r19, 0x03	; 3
    40c0:	49 e3       	ldi	r20, 0x39	; 57
    40c2:	60 e0       	ldi	r22, 0x00	; 0

					u8g_DrawStr(&u8g, 0, 	57, "V3.1");
    40c4:	8b e1       	ldi	r24, 0x1B	; 27
    40c6:	97 e0       	ldi	r25, 0x07	; 7
    40c8:	72 dc       	rcall	.-1820   	; 0x39ae <u8g_DrawStr>
    40ca:	25 e2       	ldi	r18, 0x25	; 37
    40cc:	33 e0       	ldi	r19, 0x03	; 3
    40ce:	4f e3       	ldi	r20, 0x3F	; 63
    40d0:	60 e0       	ldi	r22, 0x00	; 0
    40d2:	8b e1       	ldi	r24, 0x1B	; 27
					u8g_DrawStr(&u8g, 0, 	63, "RCJ 2014");
    40d4:	97 e0       	ldi	r25, 0x07	; 7
    40d6:	6b dc       	rcall	.-1834   	; 0x39ae <u8g_DrawStr>
    40d8:	8b e1       	ldi	r24, 0x1B	; 27
    40da:	97 e0       	ldi	r25, 0x07	; 7
					u8g_DrawStr(&u8g, 65, 	10, "WARNING");
					u8g_SetFont(&u8g, u8g_font_6x10);
					u8g_DrawStr(&u8g, 65, 	20, "Recovered");
					u8g_DrawStr(&u8g, 65, 	30, "after an");
					u8g_DrawStr(&u8g, 65, 	40, "unexpected");
					u8g_DrawStr(&u8g, 65, 	50, "shutdown!");
    40dc:	30 de       	rcall	.-928    	; 0x3d3e <u8g_NextPage>
    40de:	81 11       	cpse	r24, r1
    40e0:	21 c0       	rjmp	.+66     	; 0x4124 <u8g_DrawStartUp+0xd6>
    40e2:	0e 94 56 5b 	call	0xb6ac	; 0xb6ac <get_t1>
					//u8g_SetFont(&u8g, u8g_font_4x6); //Schriftart
					//u8g_DrawStr(&u8g, 60, 	60, "Calibrate IMU...");
				}
			} while(u8g_NextPage(&u8g));
    40e6:	81 11       	cpse	r24, r1
    40e8:	fc cf       	rjmp	.-8      	; 0x40e2 <u8g_DrawStartUp+0x94>
    40ea:	80 91 7a 05 	lds	r24, 0x057A
    40ee:	83 30       	cpi	r24, 0x03	; 3

			while(get_t1()); //Animation pausieren, whrend Pausetaste gedckt gehalten wird
    40f0:	08 f0       	brcs	.+2      	; 0x40f4 <u8g_DrawStartUp+0xa6>
    40f2:	b9 c0       	rjmp	.+370    	; 0x4266 <u8g_DrawStartUp+0x218>
    40f4:	2f ef       	ldi	r18, 0xFF	; 255
    40f6:	89 e6       	ldi	r24, 0x69	; 105
    40f8:	98 e1       	ldi	r25, 0x18	; 24
    40fa:	21 50       	subi	r18, 0x01	; 1
    40fc:	80 40       	sbci	r24, 0x00	; 0
    40fe:	90 40       	sbci	r25, 0x00	; 0
    4100:	e1 f7       	brne	.-8      	; 0x40fa <u8g_DrawStartUp+0xac>
	#else
		//round up by default
		__ticks_dc = (uint32_t)(ceil(fabs(__tmp)));
	#endif

	__builtin_avr_delay_cycles(__ticks_dc);
    4102:	00 c0       	rjmp	.+0      	; 0x4104 <u8g_DrawStartUp+0xb6>
    4104:	00 00       	nop
    4106:	80 91 7a 05 	lds	r24, 0x057A
    410a:	87 30       	cpi	r24, 0x07	; 7
    410c:	18 f4       	brcc	.+6      	; 0x4114 <u8g_DrawStartUp+0xc6>
    410e:	8f 5f       	subi	r24, 0xFF	; 255
    4110:	80 93 7a 05 	sts	0x057A, r24
				_delay_ms(1000);
			}
			else
				_delay_ms(20);
			
			if(sm_logo < 7)
    4114:	80 91 7a 05 	lds	r24, 0x057A
    4118:	87 30       	cpi	r24, 0x07	; 7
    411a:	08 f0       	brcs	.+2      	; 0x411e <u8g_DrawStartUp+0xd0>
				sm_logo++;
    411c:	b6 c0       	rjmp	.+364    	; 0x428a <u8g_DrawStartUp+0x23c>
    411e:	8b e1       	ldi	r24, 0x1B	; 27
    4120:	97 e0       	ldi	r25, 0x07	; 7
void u8g_DrawStartUp(void) //,,Verschnerung" zum Zeit ,,schinden" am Anfang fr UM6
{
	if((mcusr_mirror & (1<<0)) ||
		 check_res) //Nur bei Power-off Neustart (nur dann kalibriert sich UM6 neu) und bei Reset (Warnung anzeigen)
	{
		while(sm_logo < 7)
    4122:	09 de       	rcall	.-1006   	; 0x3d36 <u8g_FirstPage>
    4124:	80 91 64 05 	lds	r24, 0x0564
    4128:	81 11       	cpse	r24, r1
    412a:	66 c0       	rjmp	.+204    	; 0x41f8 <u8g_DrawStartUp+0x1aa>
		{
			u8g_FirstPage(&u8g);
    412c:	80 91 7a 05 	lds	r24, 0x057A
    4130:	90 e0       	ldi	r25, 0x00	; 0
    4132:	87 30       	cpi	r24, 0x07	; 7
		 	do
			{
			 	if(!check_res) //Normaler Start
    4134:	91 05       	cpc	r25, r1
    4136:	d8 f5       	brcc	.+118    	; 0x41ae <u8g_DrawStartUp+0x160>
    4138:	fc 01       	movw	r30, r24
    413a:	ee 58       	subi	r30, 0x8E	; 142
				{
					/////Logo (Animation)
					switch(sm_logo)
    413c:	ff 4f       	sbci	r31, 0xFF	; 255
    413e:	0c 94 d2 6b 	jmp	0xd7a4	; 0xd7a4 <__tablejump2__>
    4142:	61 ec       	ldi	r22, 0xC1	; 193
    4144:	e6 2e       	mov	r14, r22
    4146:	6b e1       	ldi	r22, 0x1B	; 27
    4148:	f6 2e       	mov	r15, r22
    414a:	0a e2       	ldi	r16, 0x2A	; 42
    414c:	23 e6       	ldi	r18, 0x63	; 99
    414e:	42 e0       	ldi	r20, 0x02	; 2
    4150:	6e e0       	ldi	r22, 0x0E	; 14
					{
						case 0:	u8g_DrawXBMP(&u8g, 5, 5, 118, 29, logo_rios); //500ms
										break;
						case 1:	u8g_DrawXBMP(&u8g, 14, 2, 99, 42, logo_rcj); //500ms
    4152:	94 cf       	rjmp	.-216    	; 0x407c <u8g_DrawStartUp+0x2e>
    4154:	58 e4       	ldi	r21, 0x48	; 72
    4156:	e5 2e       	mov	r14, r21
    4158:	53 e2       	ldi	r21, 0x23	; 35
    415a:	f5 2e       	mov	r15, r21
    415c:	09 e2       	ldi	r16, 0x29	; 41
    415e:	29 e2       	ldi	r18, 0x29	; 41
    4160:	42 e0       	ldi	r20, 0x02	; 2
    4162:	6c e2       	ldi	r22, 0x2C	; 44
										break;
						case 2:	u8g_DrawXBMP(&u8g, 44, 2, 41, 41, logo_a1);		//500ms
    4164:	8b cf       	rjmp	.-234    	; 0x407c <u8g_DrawStartUp+0x2e>
    4166:	4f e8       	ldi	r20, 0x8F	; 143
    4168:	e4 2e       	mov	r14, r20
    416a:	42 e2       	ldi	r20, 0x22	; 34
    416c:	f4 2e       	mov	r15, r20
    416e:	05 e2       	ldi	r16, 0x25	; 37
    4170:	25 e2       	ldi	r18, 0x25	; 37
    4172:	42 e0       	ldi	r20, 0x02	; 2
    4174:	6c e3       	ldi	r22, 0x3C	; 60
										break;
						case 3:	u8g_DrawXBMP(&u8g, 60, 2, 37, 37, logo_a2);		//20ms
    4176:	82 cf       	rjmp	.-252    	; 0x407c <u8g_DrawStartUp+0x2e>
    4178:	3a ee       	ldi	r19, 0xEA	; 234
    417a:	e3 2e       	mov	r14, r19
    417c:	31 e2       	ldi	r19, 0x21	; 33
    417e:	f3 2e       	mov	r15, r19
    4180:	01 e2       	ldi	r16, 0x21	; 33
    4182:	21 e2       	ldi	r18, 0x21	; 33
    4184:	42 e0       	ldi	r20, 0x02	; 2
    4186:	6c e4       	ldi	r22, 0x4C	; 76
										break;
						case 4: u8g_DrawXBMP(&u8g, 76, 2, 33, 33, logo_a3);		//20ms
    4188:	79 cf       	rjmp	.-270    	; 0x407c <u8g_DrawStartUp+0x2e>
    418a:	26 e7       	ldi	r18, 0x76	; 118
    418c:	e2 2e       	mov	r14, r18
    418e:	21 e2       	ldi	r18, 0x21	; 33
    4190:	f2 2e       	mov	r15, r18
    4192:	0d e1       	ldi	r16, 0x1D	; 29
    4194:	2d e1       	ldi	r18, 0x1D	; 29
    4196:	42 e0       	ldi	r20, 0x02	; 2
    4198:	6b e5       	ldi	r22, 0x5B	; 91
										break;
						case 5:	u8g_DrawXBMP(&u8g, 91, 2, 29, 29, logo_a4);		//20ms
    419a:	70 cf       	rjmp	.-288    	; 0x407c <u8g_DrawStartUp+0x2e>
    419c:	9e e3       	ldi	r25, 0x3E	; 62
    419e:	e9 2e       	mov	r14, r25
    41a0:	94 e2       	ldi	r25, 0x24	; 36
    41a2:	f9 2e       	mov	r15, r25
    41a4:	0d e1       	ldi	r16, 0x1D	; 29
    41a6:	20 e8       	ldi	r18, 0x80	; 128
    41a8:	40 e0       	ldi	r20, 0x00	; 0
    41aa:	60 e0       	ldi	r22, 0x00	; 0
										break;
						case 6:	u8g_DrawXBMP(&u8g, 0, 0, 128, 29, logo);			//1000ms
    41ac:	67 cf       	rjmp	.-306    	; 0x407c <u8g_DrawStartUp+0x2e>
    41ae:	80 91 53 05 	lds	r24, 0x0553
    41b2:	82 30       	cpi	r24, 0x02	; 2
    41b4:	78 f0       	brcs	.+30     	; 0x41d4 <u8g_DrawStartUp+0x186>
    41b6:	8e eb       	ldi	r24, 0xBE	; 190
    41b8:	9b e1       	ldi	r25, 0x1B	; 27
    41ba:	06 df       	rcall	.-500    	; 0x3fc8 <bt_putStr_P>
    41bc:	60 91 47 05 	lds	r22, 0x0547
										break;
						default: 	if(debug > 1){bt_putStr_P(PSTR("\n\r")); bt_putLong(timer); bt_putStr_P(PSTR(": ERROR::FATAL:WENT_INTO:switch[disp.01]:DEFAULT_CASE"));}
    41c0:	70 91 48 05 	lds	r23, 0x0548
    41c4:	80 91 49 05 	lds	r24, 0x0549
    41c8:	90 91 4a 05 	lds	r25, 0x054A
    41cc:	0f df       	rcall	.-482    	; 0x3fec <bt_putLong>
    41ce:	88 e8       	ldi	r24, 0x88	; 136
    41d0:	9b e1       	ldi	r25, 0x1B	; 27
    41d2:	fa de       	rcall	.-524    	; 0x3fc8 <bt_putStr_P>
    41d4:	c0 93 63 05 	sts	0x0563, r28
    41d8:	55 cf       	rjmp	.-342    	; 0x4084 <u8g_DrawStartUp+0x36>
    41da:	81 ff       	sbrs	r24, 1
    41dc:	03 c0       	rjmp	.+6      	; 0x41e4 <u8g_DrawStartUp+0x196>
    41de:	28 ef       	ldi	r18, 0xF8	; 248
    41e0:	32 e0       	ldi	r19, 0x02	; 2
    41e2:	67 cf       	rjmp	.-306    	; 0x40b2 <u8g_DrawStartUp+0x64>
    41e4:	82 ff       	sbrs	r24, 2
    41e6:	03 c0       	rjmp	.+6      	; 0x41ee <u8g_DrawStartUp+0x1a0>
    41e8:	26 e0       	ldi	r18, 0x06	; 6
											fatal_err = 1;
    41ea:	33 e0       	ldi	r19, 0x03	; 3
    41ec:	62 cf       	rjmp	.-316    	; 0x40b2 <u8g_DrawStartUp+0x64>
    41ee:	84 ff       	sbrs	r24, 4
	
					u8g_SetFont(&u8g, u8g_font_4x6); //Schriftart

					if(mcusr_mirror & (1<<0))
						u8g_DrawStr(&u8g, 40, 	64, "ResSRC: PORF"); //Power-on Reset Flag
					else if(mcusr_mirror & (1<<1))
    41f0:	65 cf       	rjmp	.-310    	; 0x40bc <u8g_DrawStartUp+0x6e>
    41f2:	23 e1       	ldi	r18, 0x13	; 19
						u8g_DrawStr(&u8g, 40, 	64, "ResSRC: EXTRF"); //External Reset Flag
    41f4:	33 e0       	ldi	r19, 0x03	; 3
    41f6:	5d cf       	rjmp	.-326    	; 0x40b2 <u8g_DrawStartUp+0x64>
    41f8:	86 e9       	ldi	r24, 0x96	; 150
					else if(mcusr_mirror & (1<<2))
    41fa:	e8 2e       	mov	r14, r24
    41fc:	8f e1       	ldi	r24, 0x1F	; 31
						u8g_DrawStr(&u8g, 40, 	64, "ResSRC: BORF"); //Brown-out Reset Flag
    41fe:	f8 2e       	mov	r15, r24
    4200:	0c e3       	ldi	r16, 0x3C	; 60
    4202:	2c e3       	ldi	r18, 0x3C	; 60
					else if(mcusr_mirror & (1<<4))
    4204:	42 e0       	ldi	r20, 0x02	; 2
    4206:	62 e0       	ldi	r22, 0x02	; 2
						u8g_DrawStr(&u8g, 40, 	64, "ResSRC: JTRF"); //JTAG Reset Flag
    4208:	8b e1       	ldi	r24, 0x1B	; 27
    420a:	97 e0       	ldi	r25, 0x07	; 7
    420c:	0e 94 59 63 	call	0xc6b2	; 0xc6b2 <u8g_DrawXBMP>
					u8g_DrawStr(&u8g, 0, 	57, "V3.1");
					u8g_DrawStr(&u8g, 0, 	63, "RCJ 2014");
				}
				else	//Watchdog Start!
				{
					u8g_DrawXBMP(&u8g, 2, 2, 60, 60, warning);
    4210:	6a e8       	ldi	r22, 0x8A	; 138
    4212:	72 e0       	ldi	r23, 0x02	; 2
    4214:	8b e1       	ldi	r24, 0x1B	; 27
    4216:	97 e0       	ldi	r25, 0x07	; 7
    4218:	4f dc       	rcall	.-1890   	; 0x3ab8 <u8g_SetFont>
    421a:	2e e2       	ldi	r18, 0x2E	; 46
    421c:	33 e0       	ldi	r19, 0x03	; 3
    421e:	4a e0       	ldi	r20, 0x0A	; 10
    4220:	61 e4       	ldi	r22, 0x41	; 65
    4222:	8b e1       	ldi	r24, 0x1B	; 27
    4224:	97 e0       	ldi	r25, 0x07	; 7
					u8g_SetFont(&u8g, u8g_font_8x13Br); //Schriftart
    4226:	c3 db       	rcall	.-2170   	; 0x39ae <u8g_DrawStr>
    4228:	6d ee       	ldi	r22, 0xED	; 237
    422a:	76 e0       	ldi	r23, 0x06	; 6
    422c:	8b e1       	ldi	r24, 0x1B	; 27
    422e:	97 e0       	ldi	r25, 0x07	; 7
    4230:	43 dc       	rcall	.-1914   	; 0x3ab8 <u8g_SetFont>
					u8g_DrawStr(&u8g, 65, 	10, "WARNING");
    4232:	26 e3       	ldi	r18, 0x36	; 54
    4234:	33 e0       	ldi	r19, 0x03	; 3
    4236:	44 e1       	ldi	r20, 0x14	; 20
    4238:	61 e4       	ldi	r22, 0x41	; 65
    423a:	8b e1       	ldi	r24, 0x1B	; 27
    423c:	97 e0       	ldi	r25, 0x07	; 7
    423e:	b7 db       	rcall	.-2194   	; 0x39ae <u8g_DrawStr>
    4240:	20 e4       	ldi	r18, 0x40	; 64
					u8g_SetFont(&u8g, u8g_font_6x10);
    4242:	33 e0       	ldi	r19, 0x03	; 3
    4244:	4e e1       	ldi	r20, 0x1E	; 30
    4246:	61 e4       	ldi	r22, 0x41	; 65
    4248:	8b e1       	ldi	r24, 0x1B	; 27
    424a:	97 e0       	ldi	r25, 0x07	; 7
    424c:	b0 db       	rcall	.-2208   	; 0x39ae <u8g_DrawStr>
					u8g_DrawStr(&u8g, 65, 	20, "Recovered");
    424e:	29 e4       	ldi	r18, 0x49	; 73
    4250:	33 e0       	ldi	r19, 0x03	; 3
    4252:	48 e2       	ldi	r20, 0x28	; 40
    4254:	61 e4       	ldi	r22, 0x41	; 65
    4256:	8b e1       	ldi	r24, 0x1B	; 27
    4258:	97 e0       	ldi	r25, 0x07	; 7
    425a:	a9 db       	rcall	.-2222   	; 0x39ae <u8g_DrawStr>
    425c:	24 e5       	ldi	r18, 0x54	; 84
					u8g_DrawStr(&u8g, 65, 	30, "after an");
    425e:	33 e0       	ldi	r19, 0x03	; 3
    4260:	42 e3       	ldi	r20, 0x32	; 50
    4262:	61 e4       	ldi	r22, 0x41	; 65
    4264:	36 cf       	rjmp	.-404    	; 0x40d2 <u8g_DrawStartUp+0x84>
    4266:	86 30       	cpi	r24, 0x06	; 6
    4268:	41 f4       	brne	.+16     	; 0x427a <u8g_DrawStartUp+0x22c>
    426a:	2f ef       	ldi	r18, 0xFF	; 255
    426c:	83 ed       	ldi	r24, 0xD3	; 211
					u8g_DrawStr(&u8g, 65, 	40, "unexpected");
    426e:	90 e3       	ldi	r25, 0x30	; 48
    4270:	21 50       	subi	r18, 0x01	; 1
    4272:	80 40       	sbci	r24, 0x00	; 0
    4274:	90 40       	sbci	r25, 0x00	; 0
    4276:	e1 f7       	brne	.-8      	; 0x4270 <u8g_DrawStartUp+0x222>
    4278:	44 cf       	rjmp	.-376    	; 0x4102 <u8g_DrawStartUp+0xb4>
    427a:	2f ef       	ldi	r18, 0xFF	; 255
    427c:	89 ef       	ldi	r24, 0xF9	; 249
					u8g_DrawStr(&u8g, 65, 	50, "shutdown!");
    427e:	90 e0       	ldi	r25, 0x00	; 0
    4280:	21 50       	subi	r18, 0x01	; 1
    4282:	80 40       	sbci	r24, 0x00	; 0
    4284:	90 40       	sbci	r25, 0x00	; 0
    4286:	e1 f7       	brne	.-8      	; 0x4280 <u8g_DrawStartUp+0x232>
    4288:	3c cf       	rjmp	.-392    	; 0x4102 <u8g_DrawStartUp+0xb4>
    428a:	cf 91       	pop	r28
    428c:	0f 91       	pop	r16
    428e:	ff 90       	pop	r15
    4290:	ef 90       	pop	r14
    4292:	08 95       	ret

00004294 <set_msg>:
	"INFO 05: LOP..."
};

void set_msg(void) //Hilfsfunktion
{
	which_msg = disp_msg_i+1;
    4294:	80 91 79 05 	lds	r24, 0x0579
    4298:	8f 5f       	subi	r24, 0xFF	; 255
    429a:	80 93 78 05 	sts	0x0578, r24
	if(!(is_msg & (1<<0)))
    429e:	80 91 77 05 	lds	r24, 0x0577
    42a2:	80 fd       	sbrc	r24, 0
    42a4:	06 c0       	rjmp	.+12     	; 0x42b2 <set_msg+0x1e>
	{
		is_msg |= (1<<0);
		is_msg |= (1<<1);
    42a6:	83 60       	ori	r24, 0x03	; 3
    42a8:	80 93 77 05 	sts	0x0577, r24
		timer_disp_msg = TIMER_DISP_MSG;
    42ac:	8f e7       	ldi	r24, 0x7F	; 127
    42ae:	80 93 4e 05 	sts	0x054E, r24
    42b2:	08 95       	ret

000042b4 <u8g_DrawInfo>:
}

enum DISP_MSG {WNG_01, WNG_02, ERR_FA, ERR_10, ERR_11, ERR_20, ERR_21, ERR_30, ERR_31, INF_01, INF_02, INF_03, INF_04, INF_05}; //Ok-Meldung nicht enthalten!

u8g_DrawInfo(void) //Malen der Batterie, Anzeige in %
{
    42b4:	0f 93       	push	r16
	//  Raum    /////////       //
	//          //Info //       //
	//          //Karte//       //
	//////////////////////////////
		
	u8g_DrawHLine(&u8g, 0, 6, 128); //Horizontale Abgrenzungslinie
    42b6:	20 e8       	ldi	r18, 0x80	; 128
    42b8:	46 e0       	ldi	r20, 0x06	; 6
    42ba:	60 e0       	ldi	r22, 0x00	; 0
    42bc:	8b e1       	ldi	r24, 0x1B	; 27
    42be:	97 e0       	ldi	r25, 0x07	; 7
    42c0:	e1 dd       	rcall	.-1086   	; 0x3e84 <u8g_DrawHLine>
    42c2:	6f e8       	ldi	r22, 0x8F	; 143

    u8g_SetFont(&u8g, u8g_font_4x6); //Schriftart
    42c4:	74 e1       	ldi	r23, 0x14	; 20
    42c6:	8b e1       	ldi	r24, 0x1B	; 27
    42c8:	97 e0       	ldi	r25, 0x07	; 7
    42ca:	f6 db       	rcall	.-2068   	; 0x3ab8 <u8g_SetFont>
    42cc:	80 91 60 05 	lds	r24, 0x0560
	
	//////Batterie////////////
	if(batt_percent > -1)
    42d0:	87 fd       	sbrc	r24, 7
    42d2:	35 c0       	rjmp	.+106    	; 0x433e <u8g_DrawInfo+0x8a>
    42d4:	05 e0       	ldi	r16, 0x05	; 5
    42d6:	2a e0       	ldi	r18, 0x0A	; 10
	{
		u8g_DrawFrame(&u8g, 0, 0, 10, 5); //Batteriekrper
    42d8:	40 e0       	ldi	r20, 0x00	; 0
    42da:	60 e0       	ldi	r22, 0x00	; 0
    42dc:	8b e1       	ldi	r24, 0x1B	; 27
    42de:	97 e0       	ldi	r25, 0x07	; 7
    42e0:	04 de       	rcall	.-1016   	; 0x3eea <u8g_DrawFrame>
    42e2:	42 e0       	ldi	r20, 0x02	; 2
    42e4:	6a e0       	ldi	r22, 0x0A	; 10
    42e6:	8b e1       	ldi	r24, 0x1B	; 27
		u8g_DrawPixel(&u8g, 10, 2);
    42e8:	97 e0       	ldi	r25, 0x07	; 7
    42ea:	38 dd       	rcall	.-1424   	; 0x3d5c <u8g_DrawPixel>
    42ec:	80 91 60 05 	lds	r24, 0x0560
    42f0:	6b e0       	ldi	r22, 0x0B	; 11
    42f2:	0e 94 4b 6b 	call	0xd696	; 0xd696 <__divmodqi4>
		int8_t batt_volumeVar = batt_percent/11; //Berechnung Fllung
    42f6:	89 30       	cpi	r24, 0x09	; 9
    42f8:	24 f4       	brge	.+8      	; 0x4302 <u8g_DrawInfo+0x4e>
    42fa:	87 ff       	sbrs	r24, 7
    42fc:	03 c0       	rjmp	.+6      	; 0x4304 <u8g_DrawInfo+0x50>
		if(batt_volumeVar > 8)
    42fe:	80 e0       	ldi	r24, 0x00	; 0
    4300:	01 c0       	rjmp	.+2      	; 0x4304 <u8g_DrawInfo+0x50>
			batt_volumeVar = 8;
		if(batt_volumeVar < 0)
    4302:	88 e0       	ldi	r24, 0x08	; 8
    4304:	03 e0       	ldi	r16, 0x03	; 3
			batt_volumeVar = 0;	
    4306:	28 2f       	mov	r18, r24
    4308:	41 e0       	ldi	r20, 0x01	; 1
	{
		u8g_DrawFrame(&u8g, 0, 0, 10, 5); //Batteriekrper
		u8g_DrawPixel(&u8g, 10, 2);
		int8_t batt_volumeVar = batt_percent/11; //Berechnung Fllung
		if(batt_volumeVar > 8)
			batt_volumeVar = 8;
    430a:	61 e0       	ldi	r22, 0x01	; 1
		if(batt_volumeVar < 0)
			batt_volumeVar = 0;	
		u8g_DrawBox(&u8g, 1, 1, batt_volumeVar, 3); //Fllung
    430c:	8b e1       	ldi	r24, 0x1B	; 27
    430e:	97 e0       	ldi	r25, 0x07	; 7
    4310:	31 de       	rcall	.-926    	; 0x3f74 <u8g_DrawBox>
    4312:	20 91 60 05 	lds	r18, 0x0560
    4316:	23 36       	cpi	r18, 0x63	; 99
    4318:	34 f4       	brge	.+12     	; 0x4326 <u8g_DrawInfo+0x72>
    431a:	33 27       	eor	r19, r19

		//Anzeige daneben
		if(batt_percent < 99)
    431c:	27 fd       	sbrc	r18, 7
    431e:	30 95       	com	r19
    4320:	43 2f       	mov	r20, r19
    4322:	53 2f       	mov	r21, r19
			u8g_DrawLong(15,	5, batt_percent);
    4324:	04 c0       	rjmp	.+8      	; 0x432e <u8g_DrawInfo+0x7a>
    4326:	23 e6       	ldi	r18, 0x63	; 99
    4328:	30 e0       	ldi	r19, 0x00	; 0
    432a:	40 e0       	ldi	r20, 0x00	; 0
    432c:	50 e0       	ldi	r21, 0x00	; 0
    432e:	65 e0       	ldi	r22, 0x05	; 5
		else
			u8g_DrawLong(15,	5, 99);
    4330:	8f e0       	ldi	r24, 0x0F	; 15
    4332:	70 de       	rcall	.-800    	; 0x4014 <u8g_DrawLong>
    4334:	2e e5       	ldi	r18, 0x5E	; 94
    4336:	33 e0       	ldi	r19, 0x03	; 3
    4338:	45 e0       	ldi	r20, 0x05	; 5
    433a:	69 e1       	ldi	r22, 0x19	; 25
    433c:	04 c0       	rjmp	.+8      	; 0x4346 <u8g_DrawInfo+0x92>
    433e:	20 e6       	ldi	r18, 0x60	; 96

		u8g_DrawStr(&u8g, 25, 	5, "%");
    4340:	33 e0       	ldi	r19, 0x03	; 3
    4342:	45 e0       	ldi	r20, 0x05	; 5
    4344:	60 e0       	ldi	r22, 0x00	; 0
    4346:	8b e1       	ldi	r24, 0x1B	; 27
    4348:	97 e0       	ldi	r25, 0x07	; 7
	}
	else
	{
		u8g_DrawStr(&u8g, 0, 	5, "ERR:BAT");
    434a:	31 db       	rcall	.-2462   	; 0x39ae <u8g_DrawStr>
    434c:	80 91 4e 05 	lds	r24, 0x054E
    4350:	81 11       	cpse	r24, r1
    4352:	19 c0       	rjmp	.+50     	; 0x4386 <u8g_DrawInfo+0xd2>
    4354:	80 91 79 05 	lds	r24, 0x0579
    4358:	8f 5f       	subi	r24, 0xFF	; 255
	}
	
	//Fehleranzeige daneben:
	if(timer_disp_msg == 0)
    435a:	8e 30       	cpi	r24, 0x0E	; 14
    435c:	19 f0       	breq	.+6      	; 0x4364 <u8g_DrawInfo+0xb0>
    435e:	80 93 79 05 	sts	0x0579, r24
	{
		disp_msg_i ++;
    4362:	0c c0       	rjmp	.+24     	; 0x437c <u8g_DrawInfo+0xc8>
    4364:	10 92 79 05 	sts	0x0579, r1
		if(disp_msg_i == DISP_MSG_I_TOP)
    4368:	80 91 77 05 	lds	r24, 0x0577
	}
	
	//Fehleranzeige daneben:
	if(timer_disp_msg == 0)
	{
		disp_msg_i ++;
    436c:	81 fd       	sbrc	r24, 1
    436e:	03 c0       	rjmp	.+6      	; 0x4376 <u8g_DrawInfo+0xc2>
    4370:	10 92 78 05 	sts	0x0578, r1
		if(disp_msg_i == DISP_MSG_I_TOP)
		{
			disp_msg_i = 0;
    4374:	03 c0       	rjmp	.+6      	; 0x437c <u8g_DrawInfo+0xc8>
			if(!(is_msg & (1<<1)))
    4376:	8d 7f       	andi	r24, 0xFD	; 253
    4378:	80 93 77 05 	sts	0x0577, r24
    437c:	80 91 77 05 	lds	r24, 0x0577
				which_msg = 0;
    4380:	8e 7f       	andi	r24, 0xFE	; 254
    4382:	80 93 77 05 	sts	0x0577, r24
			else
				is_msg &= ~ (1<<1);
    4386:	80 91 79 05 	lds	r24, 0x0579
		}
		is_msg &= ~ (1<<0);
    438a:	90 e0       	ldi	r25, 0x00	; 0
    438c:	8e 30       	cpi	r24, 0x0E	; 14
    438e:	91 05       	cpc	r25, r1
    4390:	08 f0       	brcs	.+2      	; 0x4394 <u8g_DrawInfo+0xe0>
    4392:	45 c0       	rjmp	.+138    	; 0x441e <u8g_DrawInfo+0x16a>
	}

	switch(disp_msg_i)
    4394:	fc 01       	movw	r30, r24
    4396:	e7 58       	subi	r30, 0x87	; 135
    4398:	ff 4f       	sbci	r31, 0xFF	; 255
    439a:	0c 94 d2 6b 	jmp	0xd7a4	; 0xd7a4 <__tablejump2__>
    439e:	80 91 60 05 	lds	r24, 0x0560
    43a2:	84 31       	cpi	r24, 0x14	; 20
    43a4:	0c f0       	brlt	.+2      	; 0x43a8 <u8g_DrawInfo+0xf4>
    43a6:	51 c0       	rjmp	.+162    	; 0x444a <u8g_DrawInfo+0x196>
    43a8:	75 df       	rcall	.-278    	; 0x4294 <set_msg>
    43aa:	4f c0       	rjmp	.+158    	; 0x444a <u8g_DrawInfo+0x196>
	{
		case WNG_01:		if(batt_percent < 20)															set_msg();		break;
    43ac:	80 91 64 05 	lds	r24, 0x0564
    43b0:	26 c0       	rjmp	.+76     	; 0x43fe <u8g_DrawInfo+0x14a>
    43b2:	80 91 63 05 	lds	r24, 0x0563
    43b6:	23 c0       	rjmp	.+70     	; 0x43fe <u8g_DrawInfo+0x14a>
    43b8:	80 91 67 05 	lds	r24, 0x0567
		case WNG_02:		if(check_res)																	set_msg();		break;
    43bc:	0e c0       	rjmp	.+28     	; 0x43da <u8g_DrawInfo+0x126>
    43be:	80 91 67 05 	lds	r24, 0x0567
		case ERR_FA:		if(fatal_err)																	set_msg();		break;
    43c2:	10 c0       	rjmp	.+32     	; 0x43e4 <u8g_DrawInfo+0x130>
    43c4:	80 91 65 05 	lds	r24, 0x0565
		case ERR_10:		if(check_mlx & (1<<0))															set_msg();		break;
    43c8:	83 70       	andi	r24, 0x03	; 3
    43ca:	19 c0       	rjmp	.+50     	; 0x43fe <u8g_DrawInfo+0x14a>
    43cc:	80 91 65 05 	lds	r24, 0x0565
		case ERR_11:		if(check_mlx & (1<<1))															set_msg();		break;
    43d0:	82 ff       	sbrs	r24, 2
    43d2:	3b c0       	rjmp	.+118    	; 0x444a <u8g_DrawInfo+0x196>
    43d4:	e9 cf       	rjmp	.-46     	; 0x43a8 <u8g_DrawInfo+0xf4>
    43d6:	80 91 66 05 	lds	r24, 0x0566
    43da:	80 ff       	sbrs	r24, 0
		case ERR_20:		if((check_um6 & (1<<0)) || (check_um6 & (1<<1)))								set_msg();		break;
		case ERR_21:		if(check_um6 & (1<<2))															set_msg();		break;
    43dc:	36 c0       	rjmp	.+108    	; 0x444a <u8g_DrawInfo+0x196>
    43de:	e4 cf       	rjmp	.-56     	; 0x43a8 <u8g_DrawInfo+0xf4>
    43e0:	80 91 66 05 	lds	r24, 0x0566
    43e4:	81 ff       	sbrs	r24, 1
		case ERR_30:		if(check_srf & (1<<0))															set_msg();		break;
    43e6:	31 c0       	rjmp	.+98     	; 0x444a <u8g_DrawInfo+0x196>
    43e8:	df cf       	rjmp	.-66     	; 0x43a8 <u8g_DrawInfo+0xf4>
    43ea:	80 91 7f 16 	lds	r24, 0x167F
    43ee:	07 c0       	rjmp	.+14     	; 0x43fe <u8g_DrawInfo+0x14a>
		case ERR_31:		if(check_srf & (1<<1))															set_msg();		break;
    43f0:	80 91 4f 05 	lds	r24, 0x054F
    43f4:	18 16       	cp	r1, r24
    43f6:	c4 f2       	brlt	.-80     	; 0x43a8 <u8g_DrawInfo+0xf4>
    43f8:	28 c0       	rjmp	.+80     	; 0x444a <u8g_DrawInfo+0x196>
		case INF_01:		if(mot.off)																		set_msg();		break;
    43fa:	80 91 54 05 	lds	r24, 0x0554
    43fe:	88 23       	and	r24, r24
		case INF_02:		if(timer_bt_is_busy > 0)														set_msg();		break;
    4400:	21 f1       	breq	.+72     	; 0x444a <u8g_DrawInfo+0x196>
    4402:	d2 cf       	rjmp	.-92     	; 0x43a8 <u8g_DrawInfo+0xf4>
    4404:	80 91 93 02 	lds	r24, 0x0293
    4408:	90 91 94 02 	lds	r25, 0x0294
		case INF_03: 		if(setup != 0)																	set_msg();		break;
    440c:	97 ff       	sbrs	r25, 7
    440e:	cc cf       	rjmp	.-104    	; 0x43a8 <u8g_DrawInfo+0xf4>
    4410:	1c c0       	rjmp	.+56     	; 0x444a <u8g_DrawInfo+0x196>
    4412:	80 91 cd 05 	lds	r24, 0x05CD
		case INF_04: 		if(timer_rdy_restart > -1)														set_msg();		break;
    4416:	85 50       	subi	r24, 0x05	; 5
    4418:	82 30       	cpi	r24, 0x02	; 2
    441a:	b8 f4       	brcc	.+46     	; 0x444a <u8g_DrawInfo+0x196>
    441c:	c5 cf       	rjmp	.-118    	; 0x43a8 <u8g_DrawInfo+0xf4>
    441e:	80 91 53 05 	lds	r24, 0x0553
		case INF_05:		if((maze_solve_state_path == LOP_INIT) || (maze_solve_state_path == LOP_WAIT))	set_msg();		break;
    4422:	82 30       	cpi	r24, 0x02	; 2
    4424:	78 f0       	brcs	.+30     	; 0x4444 <u8g_DrawInfo+0x190>
    4426:	85 e8       	ldi	r24, 0x85	; 133
    4428:	9b e1       	ldi	r25, 0x1B	; 27
    442a:	ce dd       	rcall	.-1124   	; 0x3fc8 <bt_putStr_P>
    442c:	60 91 47 05 	lds	r22, 0x0547
		default: 	if(debug > 1){bt_putStr_P(PSTR("\n\r")); bt_putLong(timer); bt_putStr_P(PSTR(": ERROR::FATAL:WENT_INTO:switch[disp.02]:DEFAULT_CASE"));}
    4430:	70 91 48 05 	lds	r23, 0x0548
    4434:	80 91 49 05 	lds	r24, 0x0549
    4438:	90 91 4a 05 	lds	r25, 0x054A
    443c:	d7 dd       	rcall	.-1106   	; 0x3fec <bt_putLong>
    443e:	8f e4       	ldi	r24, 0x4F	; 79
    4440:	9b e1       	ldi	r25, 0x1B	; 27
    4442:	c2 dd       	rcall	.-1148   	; 0x3fc8 <bt_putStr_P>
    4444:	81 e0       	ldi	r24, 0x01	; 1
    4446:	80 93 63 05 	sts	0x0563, r24
    444a:	e0 91 78 05 	lds	r30, 0x0578
    444e:	f0 e0       	ldi	r31, 0x00	; 0
    4450:	ee 0f       	add	r30, r30
    4452:	ff 1f       	adc	r31, r31
    4454:	ec 55       	subi	r30, 0x5C	; 92
    4456:	fd 4f       	sbci	r31, 0xFD	; 253
    4458:	20 81       	ld	r18, Z
							fatal_err = 1;
    445a:	31 81       	ldd	r19, Z+1	; 0x01
    445c:	45 e0       	ldi	r20, 0x05	; 5
    445e:	63 e2       	ldi	r22, 0x23	; 35
	}
	
	u8g_DrawStr(&u8g, 35, 	5, disp_msg[which_msg]);
    4460:	8b e1       	ldi	r24, 0x1B	; 27
    4462:	97 e0       	ldi	r25, 0x07	; 7
    4464:	a4 da       	rcall	.-2744   	; 0x39ae <u8g_DrawStr>
    4466:	0f 91       	pop	r16
    4468:	08 95       	ret

0000446a <u8g_drawArrow>:
}

void u8g_drawArrow(uint8_t size, uint8_t pos_x, uint8_t pos_y, uint8_t dir, int8_t mode)
{
    446a:	ef 92       	push	r14
    446c:	ff 92       	push	r15
    446e:	0f 93       	push	r16
    4470:	1f 93       	push	r17
    4472:	cf 93       	push	r28
    4474:	df 93       	push	r29
    4476:	f8 2e       	mov	r15, r24
    4478:	d6 2f       	mov	r29, r22
    447a:	c4 2f       	mov	r28, r20
	uint8_t arrowlines_angle_pc = 2; //PC PerCent, logisch nicht korrekt, aber ok

	if(size > 10)
    447c:	8a e0       	ldi	r24, 0x0A	; 10
    447e:	8f 15       	cp	r24, r15
    4480:	18 f0       	brcs	.+6      	; 0x4488 <u8g_drawArrow+0x1e>
	u8g_DrawStr(&u8g, 35, 	5, disp_msg[which_msg]);
}

void u8g_drawArrow(uint8_t size, uint8_t pos_x, uint8_t pos_y, uint8_t dir, int8_t mode)
{
	uint8_t arrowlines_angle_pc = 2; //PC PerCent, logisch nicht korrekt, aber ok
    4482:	12 e0       	ldi	r17, 0x02	; 2
    4484:	e1 2e       	mov	r14, r17
    4486:	02 c0       	rjmp	.+4      	; 0x448c <u8g_drawArrow+0x22>

	if(size > 10)
		arrowlines_angle_pc = 3;
    4488:	b3 e0       	ldi	r27, 0x03	; 3
    448a:	eb 2e       	mov	r14, r27
    448c:	1f 2d       	mov	r17, r15
    448e:	16 95       	lsr	r17

	switch(dir)
    4490:	22 30       	cpi	r18, 0x02	; 2
    4492:	e9 f0       	breq	.+58     	; 0x44ce <u8g_drawArrow+0x64>
    4494:	18 f4       	brcc	.+6      	; 0x449c <u8g_drawArrow+0x32>
    4496:	21 30       	cpi	r18, 0x01	; 1
    4498:	39 f0       	breq	.+14     	; 0x44a8 <u8g_drawArrow+0x3e>
    449a:	75 c0       	rjmp	.+234    	; 0x4586 <u8g_drawArrow+0x11c>
    449c:	23 30       	cpi	r18, 0x03	; 3
    449e:	51 f1       	breq	.+84     	; 0x44f4 <u8g_drawArrow+0x8a>
    44a0:	24 30       	cpi	r18, 0x04	; 4
    44a2:	09 f4       	brne	.+2      	; 0x44a6 <u8g_drawArrow+0x3c>
    44a4:	4a c0       	rjmp	.+148    	; 0x453a <u8g_drawArrow+0xd0>
    44a6:	6f c0       	rjmp	.+222    	; 0x4586 <u8g_drawArrow+0x11c>
	{
		case 1:	//NORTH
							if(mode) u8g_DrawLine(&u8g, pos_x+(size/2), pos_y, pos_x-(size/2), pos_y);
    44a8:	00 23       	and	r16, r16
    44aa:	51 f0       	breq	.+20     	; 0x44c0 <u8g_drawArrow+0x56>
    44ac:	0c 2f       	mov	r16, r28
    44ae:	2d 2f       	mov	r18, r29
    44b0:	21 1b       	sub	r18, r17
    44b2:	4c 2f       	mov	r20, r28
    44b4:	61 2f       	mov	r22, r17
    44b6:	6d 0f       	add	r22, r29
    44b8:	8b e1       	ldi	r24, 0x1B	; 27
    44ba:	97 e0       	ldi	r25, 0x07	; 7
    44bc:	0e 94 d4 65 	call	0xcba8	; 0xcba8 <u8g_DrawLine>
							u8g_DrawLine(&u8g, pos_x+(size/2), pos_y, pos_x, pos_y-(size/arrowlines_angle_pc));  // -
    44c0:	8f 2d       	mov	r24, r15
    44c2:	6e 2d       	mov	r22, r14
    44c4:	0e 94 3f 6b 	call	0xd67e	; 0xd67e <__udivmodqi4>
    44c8:	f8 2e       	mov	r15, r24
    44ca:	1d 0f       	add	r17, r29
    44cc:	27 c0       	rjmp	.+78     	; 0x451c <u8g_drawArrow+0xb2>
							u8g_DrawLine(&u8g, pos_x+(size/2), pos_y, pos_x, pos_y+(size/arrowlines_angle_pc));  // -
						break;
		case 2:	//EAST
							if(mode) u8g_DrawLine(&u8g, pos_x, pos_y+(size/2), pos_x, pos_y-(size/2));
    44ce:	00 23       	and	r16, r16
    44d0:	51 f0       	breq	.+20     	; 0x44e6 <u8g_drawArrow+0x7c>
    44d2:	0c 2f       	mov	r16, r28
    44d4:	01 1b       	sub	r16, r17
    44d6:	2d 2f       	mov	r18, r29
    44d8:	41 2f       	mov	r20, r17
    44da:	4c 0f       	add	r20, r28
    44dc:	6d 2f       	mov	r22, r29
    44de:	8b e1       	ldi	r24, 0x1B	; 27
    44e0:	97 e0       	ldi	r25, 0x07	; 7
    44e2:	0e 94 d4 65 	call	0xcba8	; 0xcba8 <u8g_DrawLine>
							u8g_DrawLine(&u8g, pos_x, pos_y+(size/2), pos_x-(size/arrowlines_angle_pc),pos_y);  // /
    44e6:	8f 2d       	mov	r24, r15
    44e8:	6e 2d       	mov	r22, r14
    44ea:	0e 94 3f 6b 	call	0xd67e	; 0xd67e <__udivmodqi4>
    44ee:	f8 2e       	mov	r15, r24
    44f0:	1c 0f       	add	r17, r28
    44f2:	37 c0       	rjmp	.+110    	; 0x4562 <u8g_drawArrow+0xf8>
							u8g_DrawLine(&u8g, pos_x, pos_y+(size/2), pos_x+(size/arrowlines_angle_pc), pos_y); //  \ //
						break;
		case 3:	//SOUTH
							if(mode) u8g_DrawLine(&u8g, pos_x-(size/2), pos_y, pos_x+(size/2), pos_y); // 
    44f4:	00 23       	and	r16, r16
    44f6:	51 f0       	breq	.+20     	; 0x450c <u8g_drawArrow+0xa2>
    44f8:	0c 2f       	mov	r16, r28
    44fa:	21 2f       	mov	r18, r17
    44fc:	2d 0f       	add	r18, r29
    44fe:	4c 2f       	mov	r20, r28
    4500:	6d 2f       	mov	r22, r29
    4502:	61 1b       	sub	r22, r17
    4504:	8b e1       	ldi	r24, 0x1B	; 27
    4506:	97 e0       	ldi	r25, 0x07	; 7
    4508:	0e 94 d4 65 	call	0xcba8	; 0xcba8 <u8g_DrawLine>
							u8g_DrawLine(&u8g, pos_x-(size/2), pos_y, pos_x, pos_y-(size/arrowlines_angle_pc));  // -
    450c:	8f 2d       	mov	r24, r15
    450e:	6e 2d       	mov	r22, r14
    4510:	0e 94 3f 6b 	call	0xd67e	; 0xd67e <__udivmodqi4>
    4514:	f8 2e       	mov	r15, r24
    4516:	8d 2f       	mov	r24, r29
    4518:	81 1b       	sub	r24, r17
    451a:	18 2f       	mov	r17, r24
    451c:	0c 2f       	mov	r16, r28
    451e:	0f 19       	sub	r16, r15
    4520:	2d 2f       	mov	r18, r29
    4522:	4c 2f       	mov	r20, r28
    4524:	61 2f       	mov	r22, r17
    4526:	8b e1       	ldi	r24, 0x1B	; 27
    4528:	97 e0       	ldi	r25, 0x07	; 7
    452a:	0e 94 d4 65 	call	0xcba8	; 0xcba8 <u8g_DrawLine>
							u8g_DrawLine(&u8g, pos_x-(size/2), pos_y, pos_x, pos_y+(size/arrowlines_angle_pc));  // -
    452e:	0f 2d       	mov	r16, r15
    4530:	0c 0f       	add	r16, r28
    4532:	2d 2f       	mov	r18, r29
    4534:	4c 2f       	mov	r20, r28
    4536:	61 2f       	mov	r22, r17
    4538:	21 c0       	rjmp	.+66     	; 0x457c <u8g_drawArrow+0x112>
						break;
		case 4:	//WEST
							if(mode) u8g_DrawLine(&u8g, pos_x, pos_y-(size/2), pos_x, pos_y+(size/2)); // |
    453a:	00 23       	and	r16, r16
    453c:	51 f0       	breq	.+20     	; 0x4552 <u8g_drawArrow+0xe8>
    453e:	01 2f       	mov	r16, r17
    4540:	0c 0f       	add	r16, r28
    4542:	2d 2f       	mov	r18, r29
    4544:	4c 2f       	mov	r20, r28
    4546:	41 1b       	sub	r20, r17
    4548:	6d 2f       	mov	r22, r29
    454a:	8b e1       	ldi	r24, 0x1B	; 27
    454c:	97 e0       	ldi	r25, 0x07	; 7
    454e:	0e 94 d4 65 	call	0xcba8	; 0xcba8 <u8g_DrawLine>
							u8g_DrawLine(&u8g, pos_x, pos_y-(size/2), pos_x-(size/arrowlines_angle_pc),pos_y);  // /
    4552:	8f 2d       	mov	r24, r15
    4554:	6e 2d       	mov	r22, r14
    4556:	0e 94 3f 6b 	call	0xd67e	; 0xd67e <__udivmodqi4>
    455a:	f8 2e       	mov	r15, r24
    455c:	8c 2f       	mov	r24, r28
    455e:	81 1b       	sub	r24, r17
    4560:	18 2f       	mov	r17, r24
    4562:	2d 2f       	mov	r18, r29
    4564:	2f 19       	sub	r18, r15
    4566:	0c 2f       	mov	r16, r28
    4568:	41 2f       	mov	r20, r17
    456a:	6d 2f       	mov	r22, r29
    456c:	8b e1       	ldi	r24, 0x1B	; 27
    456e:	97 e0       	ldi	r25, 0x07	; 7
    4570:	0e 94 d4 65 	call	0xcba8	; 0xcba8 <u8g_DrawLine>
							u8g_DrawLine(&u8g, pos_x, pos_y-(size/2), pos_x+(size/arrowlines_angle_pc), pos_y); //  \ //
    4574:	2f 2d       	mov	r18, r15
    4576:	2d 0f       	add	r18, r29
    4578:	41 2f       	mov	r20, r17
    457a:	6d 2f       	mov	r22, r29
    457c:	8b e1       	ldi	r24, 0x1B	; 27
    457e:	97 e0       	ldi	r25, 0x07	; 7
    4580:	0e 94 d4 65 	call	0xcba8	; 0xcba8 <u8g_DrawLine>
						break;
    4584:	08 c0       	rjmp	.+16     	; 0x4596 <u8g_drawArrow+0x12c>
		default:  u8g_DrawStr(&u8g, pos_x-(size/2), pos_y, "ERROR");
    4586:	6d 2f       	mov	r22, r29
    4588:	61 1b       	sub	r22, r17
    458a:	28 e6       	ldi	r18, 0x68	; 104
    458c:	33 e0       	ldi	r19, 0x03	; 3
    458e:	4c 2f       	mov	r20, r28
    4590:	8b e1       	ldi	r24, 0x1B	; 27
    4592:	97 e0       	ldi	r25, 0x07	; 7
    4594:	0c da       	rcall	.-3048   	; 0x39ae <u8g_DrawStr>
    4596:	cd b7       	in	r28, 0x3d	; 61
						break;
	}
}
    4598:	de b7       	in	r29, 0x3e	; 62
    459a:	e6 e0       	ldi	r30, 0x06	; 6
    459c:	0c 94 c3 6b 	jmp	0xd786	; 0xd786 <__epilogue_restores__+0x18>

000045a0 <setupStep_Fac>:
	
///////Hilfsfunktionen:
int32_t incremental_old_setup = 0;

void setupStep_Fac(int16_t fac)
{
    45a0:	0f 93       	push	r16
    45a2:	1f 93       	push	r17
	switch(setup_mode)
    45a4:	40 91 76 05 	lds	r20, 0x0576
    45a8:	55 27       	eor	r21, r21
    45aa:	47 fd       	sbrc	r20, 7
    45ac:	50 95       	com	r21
    45ae:	65 2f       	mov	r22, r21
    45b0:	75 2f       	mov	r23, r21
    45b2:	47 30       	cpi	r20, 0x07	; 7
    45b4:	51 05       	cpc	r21, r1
    45b6:	08 f0       	brcs	.+2      	; 0x45ba <setupStep_Fac+0x1a>
    45b8:	9a c0       	rjmp	.+308    	; 0x46ee <setupStep_Fac+0x14e>
    45ba:	fa 01       	movw	r30, r20
    45bc:	e9 57       	subi	r30, 0x79	; 121
    45be:	ff 4f       	sbci	r31, 0xFF	; 255
    45c0:	0c 94 d2 6b 	jmp	0xd7a4	; 0xd7a4 <__tablejump2__>
		case 0: 	/*mlx90614[LEFT].th += ((incremental-incremental_old_setup) * fac);
							if(mlx90614[LEFT].th < 0)
								mlx90614[LEFT].th = 0;
							eepr_value_changed.mlxL = 1;*/
						break;
		case 1: 	mlx90614[RIGHT].th += ((incremental-incremental_old_setup) * fac);
    45c4:	40 91 58 05 	lds	r20, 0x0558
    45c8:	50 91 59 05 	lds	r21, 0x0559
    45cc:	60 91 5a 05 	lds	r22, 0x055A
    45d0:	70 91 5b 05 	lds	r23, 0x055B
    45d4:	00 91 71 05 	lds	r16, 0x0571
    45d8:	10 91 72 05 	lds	r17, 0x0572
    45dc:	20 91 73 05 	lds	r18, 0x0573
    45e0:	30 91 74 05 	lds	r19, 0x0574
    45e4:	40 1b       	sub	r20, r16
    45e6:	51 0b       	sbc	r21, r17
    45e8:	62 0b       	sbc	r22, r18
    45ea:	73 0b       	sbc	r23, r19
    45ec:	84 9f       	mul	r24, r20
    45ee:	90 01       	movw	r18, r0
    45f0:	85 9f       	mul	r24, r21
    45f2:	30 0d       	add	r19, r0
    45f4:	94 9f       	mul	r25, r20
    45f6:	30 0d       	add	r19, r0
    45f8:	11 24       	eor	r1, r1
    45fa:	80 91 0a 08 	lds	r24, 0x080A
    45fe:	90 91 0b 08 	lds	r25, 0x080B
    4602:	28 0f       	add	r18, r24
    4604:	39 1f       	adc	r19, r25
							if(mlx90614[RIGHT].th < 0)
    4606:	37 fd       	sbrc	r19, 7
    4608:	05 c0       	rjmp	.+10     	; 0x4614 <setupStep_Fac+0x74>
		case 0: 	/*mlx90614[LEFT].th += ((incremental-incremental_old_setup) * fac);
							if(mlx90614[LEFT].th < 0)
								mlx90614[LEFT].th = 0;
							eepr_value_changed.mlxL = 1;*/
						break;
		case 1: 	mlx90614[RIGHT].th += ((incremental-incremental_old_setup) * fac);
    460a:	30 93 0b 08 	sts	0x080B, r19
    460e:	20 93 0a 08 	sts	0x080A, r18
    4612:	04 c0       	rjmp	.+8      	; 0x461c <setupStep_Fac+0x7c>
							if(mlx90614[RIGHT].th < 0)
								mlx90614[RIGHT].th = 0;
    4614:	10 92 0b 08 	sts	0x080B, r1
    4618:	10 92 0a 08 	sts	0x080A, r1
							eepr_value_changed.mlxR = 1;
    461c:	80 91 73 07 	lds	r24, 0x0773
    4620:	82 60       	ori	r24, 0x02	; 2
    4622:	14 c0       	rjmp	.+40     	; 0x464c <setupStep_Fac+0xac>
						break;
		case 2: 	setup = 4;
    4624:	84 e0       	ldi	r24, 0x04	; 4
    4626:	18 c0       	rjmp	.+48     	; 0x4658 <setupStep_Fac+0xb8>
						break;
		case 3:		debug += (incremental-incremental_old_setup);
    4628:	80 91 58 05 	lds	r24, 0x0558
    462c:	90 91 53 05 	lds	r25, 0x0553
    4630:	89 0f       	add	r24, r25
    4632:	90 91 71 05 	lds	r25, 0x0571
    4636:	89 1b       	sub	r24, r25
							if(debug > SETUP_DEBUG_MODE_TOP)
    4638:	83 30       	cpi	r24, 0x03	; 3
    463a:	18 f4       	brcc	.+6      	; 0x4642 <setupStep_Fac+0xa2>
								mlx90614[RIGHT].th = 0;
							eepr_value_changed.mlxR = 1;
						break;
		case 2: 	setup = 4;
						break;
		case 3:		debug += (incremental-incremental_old_setup);
    463c:	80 93 53 05 	sts	0x0553, r24
    4640:	02 c0       	rjmp	.+4      	; 0x4646 <setupStep_Fac+0xa6>
							if(debug > SETUP_DEBUG_MODE_TOP)
								debug = 0;
    4642:	10 92 53 05 	sts	0x0553, r1
							eepr_value_changed.debug = 1;
    4646:	80 91 73 07 	lds	r24, 0x0773
    464a:	88 60       	ori	r24, 0x08	; 8
    464c:	80 93 73 07 	sts	0x0773, r24
						break;
    4650:	64 c0       	rjmp	.+200    	; 0x471a <setupStep_Fac+0x17a>
		case 4: 	setup = 2; //Modus 2
    4652:	82 e0       	ldi	r24, 0x02	; 2
    4654:	01 c0       	rjmp	.+2      	; 0x4658 <setupStep_Fac+0xb8>
						break;
		case 5: 	setup = 3; //Modus 3
    4656:	83 e0       	ldi	r24, 0x03	; 3
    4658:	80 93 54 05 	sts	0x0554, r24
						break;
    465c:	5e c0       	rjmp	.+188    	; 0x471a <setupStep_Fac+0x17a>
		case 6: 	if(eepr_value_changed.mlxL)
    465e:	80 91 73 07 	lds	r24, 0x0773
    4662:	80 ff       	sbrs	r24, 0
    4664:	0d c0       	rjmp	.+26     	; 0x4680 <setupStep_Fac+0xe0>
							{
								eeprom_update_word((uint16_t*)0, mlx90614[LEFT].th);
    4666:	60 91 06 08 	lds	r22, 0x0806
    466a:	70 91 07 08 	lds	r23, 0x0807
    466e:	80 e0       	ldi	r24, 0x00	; 0
    4670:	90 e0       	ldi	r25, 0x00	; 0
    4672:	0e 94 63 6c 	call	0xd8c6	; 0xd8c6 <__eeupd_word_m2560>
								eepr_value_changed.mlxL = 0;
    4676:	80 91 73 07 	lds	r24, 0x0773
    467a:	8e 7f       	andi	r24, 0xFE	; 254
    467c:	80 93 73 07 	sts	0x0773, r24
							}
							if(eepr_value_changed.mlxR)
    4680:	80 91 73 07 	lds	r24, 0x0773
    4684:	81 ff       	sbrs	r24, 1
    4686:	0d c0       	rjmp	.+26     	; 0x46a2 <setupStep_Fac+0x102>
							{
								eeprom_update_word((uint16_t*)2, mlx90614[RIGHT].th);
    4688:	60 91 0a 08 	lds	r22, 0x080A
    468c:	70 91 0b 08 	lds	r23, 0x080B
    4690:	82 e0       	ldi	r24, 0x02	; 2
    4692:	90 e0       	ldi	r25, 0x00	; 0
    4694:	0e 94 63 6c 	call	0xd8c6	; 0xd8c6 <__eeupd_word_m2560>
								eepr_value_changed.mlxR = 0;
    4698:	80 91 73 07 	lds	r24, 0x0773
    469c:	8d 7f       	andi	r24, 0xFD	; 253
    469e:	80 93 73 07 	sts	0x0773, r24
							/*if(eepr_value_changed.tarry)
							{
								eeprom_update_byte((uint8_t*)4, use_tarry);
								eepr_value_changed.tarry = 0;
							}*/
							if(eepr_value_changed.debug)
    46a2:	80 91 73 07 	lds	r24, 0x0773
    46a6:	83 ff       	sbrs	r24, 3
    46a8:	0b c0       	rjmp	.+22     	; 0x46c0 <setupStep_Fac+0x120>
							{
								eeprom_update_byte((uint8_t*)5, debug);
    46aa:	60 91 53 05 	lds	r22, 0x0553
    46ae:	85 e0       	ldi	r24, 0x05	; 5
    46b0:	90 e0       	ldi	r25, 0x00	; 0
    46b2:	0e 94 51 6c 	call	0xd8a2	; 0xd8a2 <__eeupd_byte_m2560>
								eepr_value_changed.debug = 0;
    46b6:	80 91 73 07 	lds	r24, 0x0773
    46ba:	87 7f       	andi	r24, 0xF7	; 247
    46bc:	80 93 73 07 	sts	0x0773, r24
							}
							if(eepr_value_changed.cam)
    46c0:	80 91 73 07 	lds	r24, 0x0773
    46c4:	84 ff       	sbrs	r24, 4
    46c6:	0d c0       	rjmp	.+26     	; 0x46e2 <setupStep_Fac+0x142>
							{
								eeprom_update_word((uint16_t*)6, tsl_th);
    46c8:	60 91 4e 16 	lds	r22, 0x164E
    46cc:	70 91 4f 16 	lds	r23, 0x164F
    46d0:	86 e0       	ldi	r24, 0x06	; 6
    46d2:	90 e0       	ldi	r25, 0x00	; 0
    46d4:	0e 94 63 6c 	call	0xd8c6	; 0xd8c6 <__eeupd_word_m2560>
								eepr_value_changed.cam = 0;
    46d8:	80 91 73 07 	lds	r24, 0x0773
    46dc:	8f 7e       	andi	r24, 0xEF	; 239
    46de:	80 93 73 07 	sts	0x0773, r24
								//eeprom_update_word((uint16_t*)10, tsl_th_ground);
								//tsl_th_ground = tsl_th + 30;
								eepr_value_changed.cam_ground = 0;
							}*/
							
							setup = 0;
    46e2:	10 92 54 05 	sts	0x0554, r1
							motor_activate(1); //Activate motor driver
    46e6:	81 e0       	ldi	r24, 0x01	; 1
    46e8:	0e 94 76 5b 	call	0xb6ec	; 0xb6ec <motor_activate>

						break;
    46ec:	16 c0       	rjmp	.+44     	; 0x471a <setupStep_Fac+0x17a>
		default: 	if(debug > 1){bt_putStr_P(PSTR("\n\r")); bt_putLong(timer); bt_putStr_P(PSTR(": ERROR::FATAL:WENT_INTO:switch[disp.03]:DEFAULT_CASE"));}
    46ee:	80 91 53 05 	lds	r24, 0x0553
    46f2:	82 30       	cpi	r24, 0x02	; 2
    46f4:	78 f0       	brcs	.+30     	; 0x4714 <setupStep_Fac+0x174>
    46f6:	8c e4       	ldi	r24, 0x4C	; 76
    46f8:	9b e1       	ldi	r25, 0x1B	; 27
    46fa:	66 dc       	rcall	.-1844   	; 0x3fc8 <bt_putStr_P>
    46fc:	60 91 47 05 	lds	r22, 0x0547
    4700:	70 91 48 05 	lds	r23, 0x0548
    4704:	80 91 49 05 	lds	r24, 0x0549
    4708:	90 91 4a 05 	lds	r25, 0x054A
    470c:	6f dc       	rcall	.-1826   	; 0x3fec <bt_putLong>
    470e:	86 e1       	ldi	r24, 0x16	; 22
    4710:	9b e1       	ldi	r25, 0x1B	; 27
    4712:	5a dc       	rcall	.-1868   	; 0x3fc8 <bt_putStr_P>
    4714:	81 e0       	ldi	r24, 0x01	; 1
    4716:	80 93 63 05 	sts	0x0563, r24
							fatal_err = 1;
    471a:	1f 91       	pop	r17
    471c:	0f 91       	pop	r16
    471e:	08 95       	ret

00004720 <u8g_DrawSetUp>:

///////


void u8g_DrawSetUp(void)
{
    4720:	0f 93       	push	r16
	u8g_SetFont(&u8g, u8g_font_4x6);
    4722:	6f e8       	ldi	r22, 0x8F	; 143
    4724:	74 e1       	ldi	r23, 0x14	; 20
    4726:	8b e1       	ldi	r24, 0x1B	; 27
    4728:	97 e0       	ldi	r25, 0x07	; 7
    472a:	c6 d9       	rcall	.-3188   	; 0x3ab8 <u8g_SetFont>
    472c:	0e 94 59 5b 	call	0xb6b2	; 0xb6b2 <get_incrOk>

	if(get_incrOk() && (timer_incr_entpr == 0) && mot.off)
    4730:	88 23       	and	r24, r24
    4732:	09 f4       	brne	.+2      	; 0x4736 <u8g_DrawSetUp+0x16>
    4734:	47 c0       	rjmp	.+142    	; 0x47c4 <u8g_DrawSetUp+0xa4>
    4736:	80 91 50 05 	lds	r24, 0x0550
    473a:	81 11       	cpse	r24, r1
    473c:	43 c0       	rjmp	.+134    	; 0x47c4 <u8g_DrawSetUp+0xa4>
    473e:	80 91 7f 16 	lds	r24, 0x167F
    4742:	88 23       	and	r24, r24
    4744:	09 f4       	brne	.+2      	; 0x4748 <u8g_DrawSetUp+0x28>
    4746:	3e c0       	rjmp	.+124    	; 0x47c4 <u8g_DrawSetUp+0xa4>
    4748:	80 91 76 05 	lds	r24, 0x0576
	{
		switch(setup_mode)
    474c:	84 30       	cpi	r24, 0x04	; 4
    474e:	3c f4       	brge	.+14     	; 0x475e <u8g_DrawSetUp+0x3e>
    4750:	82 30       	cpi	r24, 0x02	; 2
    4752:	bc f4       	brge	.+46     	; 0x4782 <u8g_DrawSetUp+0x62>
    4754:	88 23       	and	r24, r24
    4756:	99 f1       	breq	.+102    	; 0x47be <u8g_DrawSetUp+0x9e>
    4758:	81 30       	cpi	r24, 0x01	; 1
    475a:	49 f0       	breq	.+18     	; 0x476e <u8g_DrawSetUp+0x4e>
    475c:	1a c0       	rjmp	.+52     	; 0x4792 <u8g_DrawSetUp+0x72>
    475e:	87 30       	cpi	r24, 0x07	; 7
    4760:	c4 f4       	brge	.+48     	; 0x4792 <u8g_DrawSetUp+0x72>
    4762:	80 91 75 05 	lds	r24, 0x0575
								if(setup_step > SETUP_STEP_TOP_BIN)
									setup_step = 0;
							break;
			case 4:
			case 5:
			case 6: 	setup_step ++;
    4766:	8f 5f       	subi	r24, 0xFF	; 255
    4768:	80 93 75 05 	sts	0x0575, r24
    476c:	28 c0       	rjmp	.+80     	; 0x47be <u8g_DrawSetUp+0x9e>
							break;
    476e:	80 91 75 05 	lds	r24, 0x0575
	if(get_incrOk() && (timer_incr_entpr == 0) && mot.off)
	{
		switch(setup_mode)
		{
			case 0: break;
			case 1:		setup_step ++;
    4772:	8f 5f       	subi	r24, 0xFF	; 255
    4774:	80 93 75 05 	sts	0x0575, r24
    4778:	83 30       	cpi	r24, 0x03	; 3
								if(setup_step > SETUP_STEP_TOP_MLX)
    477a:	0c f1       	brlt	.+66     	; 0x47be <u8g_DrawSetUp+0x9e>
    477c:	10 92 75 05 	sts	0x0575, r1
									setup_step = 0;
    4780:	1e c0       	rjmp	.+60     	; 0x47be <u8g_DrawSetUp+0x9e>
    4782:	80 91 75 05 	lds	r24, 0x0575
							break;
			case 2:
			case 3: 	setup_step ++;
    4786:	8f 5f       	subi	r24, 0xFF	; 255
    4788:	80 93 75 05 	sts	0x0575, r24
    478c:	82 30       	cpi	r24, 0x02	; 2
								if(setup_step > SETUP_STEP_TOP_BIN)
    478e:	b4 f7       	brge	.-20     	; 0x477c <u8g_DrawSetUp+0x5c>
    4790:	16 c0       	rjmp	.+44     	; 0x47be <u8g_DrawSetUp+0x9e>
    4792:	80 91 53 05 	lds	r24, 0x0553
							break;
			case 4:
			case 5:
			case 6: 	setup_step ++;
							break;
			default: 	if(debug > 1){bt_putStr_P(PSTR("\n\r")); bt_putLong(timer); bt_putStr_P(PSTR(": ERROR::FATAL:WENT_INTO:switch[disp.04]:DEFAULT_CASE"));}
    4796:	82 30       	cpi	r24, 0x02	; 2
    4798:	78 f0       	brcs	.+30     	; 0x47b8 <u8g_DrawSetUp+0x98>
    479a:	83 e1       	ldi	r24, 0x13	; 19
    479c:	9b e1       	ldi	r25, 0x1B	; 27
    479e:	14 dc       	rcall	.-2008   	; 0x3fc8 <bt_putStr_P>
    47a0:	60 91 47 05 	lds	r22, 0x0547
    47a4:	70 91 48 05 	lds	r23, 0x0548
    47a8:	80 91 49 05 	lds	r24, 0x0549
    47ac:	90 91 4a 05 	lds	r25, 0x054A
    47b0:	1d dc       	rcall	.-1990   	; 0x3fec <bt_putLong>
    47b2:	8d ed       	ldi	r24, 0xDD	; 221
    47b4:	9a e1       	ldi	r25, 0x1A	; 26
    47b6:	08 dc       	rcall	.-2032   	; 0x3fc8 <bt_putStr_P>
    47b8:	81 e0       	ldi	r24, 0x01	; 1
    47ba:	80 93 63 05 	sts	0x0563, r24
    47be:	84 e1       	ldi	r24, 0x14	; 20
								fatal_err = 1;
    47c0:	80 93 50 05 	sts	0x0550, r24
    47c4:	80 91 75 05 	lds	r24, 0x0575
		}

		timer_incr_entpr = TIMER_ENTPR_INCR;
    47c8:	82 30       	cpi	r24, 0x02	; 2
    47ca:	09 f1       	breq	.+66     	; 0x480e <u8g_DrawSetUp+0xee>
	}

	switch(setup_step)
    47cc:	3c f4       	brge	.+14     	; 0x47dc <u8g_DrawSetUp+0xbc>
    47ce:	88 23       	and	r24, r24
    47d0:	61 f0       	breq	.+24     	; 0x47ea <u8g_DrawSetUp+0xca>
    47d2:	81 30       	cpi	r24, 0x01	; 1
    47d4:	19 f5       	brne	.+70     	; 0x481c <u8g_DrawSetUp+0xfc>
    47d6:	88 ee       	ldi	r24, 0xE8	; 232
    47d8:	93 e0       	ldi	r25, 0x03	; 3
    47da:	1b c0       	rjmp	.+54     	; 0x4812 <u8g_DrawSetUp+0xf2>
    47dc:	83 30       	cpi	r24, 0x03	; 3
							if(setup_mode > SETUP_MODE_TOP)
								setup_mode = 0;
							else if(setup_mode < 0)
								setup_mode = SETUP_MODE_TOP;
						break;
		case 1:		setupStep_Fac(1000);
    47de:	d9 f0       	breq	.+54     	; 0x4816 <u8g_DrawSetUp+0xf6>
    47e0:	84 30       	cpi	r24, 0x04	; 4
    47e2:	e1 f4       	brne	.+56     	; 0x481c <u8g_DrawSetUp+0xfc>
		}

		timer_incr_entpr = TIMER_ENTPR_INCR;
	}

	switch(setup_step)
    47e4:	81 e0       	ldi	r24, 0x01	; 1
    47e6:	90 e0       	ldi	r25, 0x00	; 0
    47e8:	14 c0       	rjmp	.+40     	; 0x4812 <u8g_DrawSetUp+0xf2>
    47ea:	80 91 58 05 	lds	r24, 0x0558
						break;
		case 2:		setupStep_Fac(100);
						break;
		case 3:		setupStep_Fac(10);
						break;
		case 4:		setupStep_Fac(1);
    47ee:	90 91 76 05 	lds	r25, 0x0576
		timer_incr_entpr = TIMER_ENTPR_INCR;
	}

	switch(setup_step)
	{
		case 0:		setup_mode += (incremental-incremental_old_setup);
    47f2:	89 0f       	add	r24, r25
    47f4:	90 91 71 05 	lds	r25, 0x0571
    47f8:	89 1b       	sub	r24, r25
    47fa:	87 30       	cpi	r24, 0x07	; 7
    47fc:	1c f0       	brlt	.+6      	; 0x4804 <u8g_DrawSetUp+0xe4>
    47fe:	10 92 76 05 	sts	0x0576, r1
							if(setup_mode > SETUP_MODE_TOP)
    4802:	22 c0       	rjmp	.+68     	; 0x4848 <u8g_DrawSetUp+0x128>
    4804:	87 fd       	sbrc	r24, 7
								setup_mode = 0;
    4806:	86 e0       	ldi	r24, 0x06	; 6
    4808:	80 93 76 05 	sts	0x0576, r24
							else if(setup_mode < 0)
    480c:	1d c0       	rjmp	.+58     	; 0x4848 <u8g_DrawSetUp+0x128>
								setup_mode = SETUP_MODE_TOP;
    480e:	84 e6       	ldi	r24, 0x64	; 100
    4810:	90 e0       	ldi	r25, 0x00	; 0
    4812:	c6 de       	rcall	.-628    	; 0x45a0 <setupStep_Fac>
    4814:	19 c0       	rjmp	.+50     	; 0x4848 <u8g_DrawSetUp+0x128>
						break;
		case 1:		setupStep_Fac(1000);
						break;
		case 2:		setupStep_Fac(100);
    4816:	8a e0       	ldi	r24, 0x0A	; 10
    4818:	90 e0       	ldi	r25, 0x00	; 0
    481a:	fb cf       	rjmp	.-10     	; 0x4812 <u8g_DrawSetUp+0xf2>
    481c:	80 91 53 05 	lds	r24, 0x0553
						break;
		case 3:		setupStep_Fac(10);
    4820:	82 30       	cpi	r24, 0x02	; 2
    4822:	78 f0       	brcs	.+30     	; 0x4842 <u8g_DrawSetUp+0x122>
    4824:	8a ed       	ldi	r24, 0xDA	; 218
						break;
		case 4:		setupStep_Fac(1);
						break;
		default: 	if(debug > 1){bt_putStr_P(PSTR("\n\r")); bt_putLong(timer); bt_putStr_P(PSTR(": ERROR::FATAL:WENT_INTO:switch[disp.05]:DEFAULT_CASE"));}
    4826:	9a e1       	ldi	r25, 0x1A	; 26
    4828:	cf db       	rcall	.-2146   	; 0x3fc8 <bt_putStr_P>
    482a:	60 91 47 05 	lds	r22, 0x0547
    482e:	70 91 48 05 	lds	r23, 0x0548
    4832:	80 91 49 05 	lds	r24, 0x0549
    4836:	90 91 4a 05 	lds	r25, 0x054A
    483a:	d8 db       	rcall	.-2128   	; 0x3fec <bt_putLong>
    483c:	84 ea       	ldi	r24, 0xA4	; 164
    483e:	9a e1       	ldi	r25, 0x1A	; 26
    4840:	c3 db       	rcall	.-2170   	; 0x3fc8 <bt_putStr_P>
    4842:	81 e0       	ldi	r24, 0x01	; 1
    4844:	80 93 63 05 	sts	0x0563, r24
    4848:	80 91 58 05 	lds	r24, 0x0558
    484c:	90 91 59 05 	lds	r25, 0x0559
    4850:	a0 91 5a 05 	lds	r26, 0x055A
							fatal_err = 1;
    4854:	b0 91 5b 05 	lds	r27, 0x055B
	}
	incremental_old_setup = incremental;
    4858:	80 93 71 05 	sts	0x0571, r24
